RASU8(ML610111)Relocatable Assembler, Ver.1.61.2    assemble list. page:   1 
 Source File: _output\_obj\main.asm
 Object File: _output\_obj\main.obj
 Date  : 2015/04/30 Thu.[11:01]
 Title : 
## Loc. Object                   Line   Source Statements

                                    1   ;; Compile Options : /TML610111 /MS /near /Icommon /Imain /Iirq /Itimer /Iclock /Itbc /Ipwm /Iuart /Ivolume /Iled /Ii2c /SS 256 /SD /Oa /Ot /W 1 /Ff /Fa_output\_obj\ 
                                    2   ;; Version Number  : Ver.3.41.8
                                    3   ;; File Name       : main.c
                                    4   
                                    5   	type (ML610111) 
                                    6   	fastfloat
                                    7   	model small, near
                                    8   	$$NVARmain segment data 2h #0h
                                    9   	$$NINITVAR segment data 2h #0h
                                   10   	$$NINITTAB segment table 2h any
                                   11   	$$BLINK$main segment code 2h #0h
                                   12   	$$GetColorUART_Command$main segment code 2h #0h
                                   13   	$$GetUART_Command$main segment code 2h #0h
                                   14   	$$I2C_Read$main segment code 2h #0h
                                   15   	$$I2C_Write$main segment code 2h #0h
                                   16   	$$Init_KMX61$main segment code 2h #0h
                                   17   	$$Initialization$main segment code 2h #0h
                                   18   	$$NOP1000$main segment code 2h #0h
                                   19   	$$NOPms$main segment code 2h #0h
                                   20   	$$OutputPWM$main segment code 2h #0h
                                   21   	$$PWM_SET$main segment code 2h #0h
                                   22   	$$PinB0_PWM$main segment code 2h #0h
                                   23   	$$PortA_Digital_Inputs$main segment code 2h #0h
                                   24   	$$PortA_Low$main segment code 2h #0h
                                   25   	$$PortB_Low$main segment code 2h #0h
                                   26   	$$PortC_Low$main segment code 2h #0h
                                   27   	$$SET_RGB$main segment code 2h #0h
                                   28   	$$SetOSC$main segment code 2h #0h
                                   29   	$$TABALS0_LSB$main segment table 2h #0h
                                   30   	$$TABALS0_MSB$main segment table 2h #0h
                                   31   	$$TABALS1_LSB$main segment table 2h #0h
                                   32   	$$TABALS1_MSB$main segment table 2h #0h
                                   33   	$$TABKMX61_ACCEL_XOUT_H$main segment table 2h #0h
                                   34   	$$TABKMX61_ACCEL_XOUT_L$main segment table 2h #0h
                                   35   	$$TABKMX61_ACCEL_YOUT_H$main segment table 2h #0h
                                   36   	$$TABKMX61_ACCEL_YOUT_L$main segment table 2h #0h
                                   37   	$$TABKMX61_ACCEL_ZOUT_H$main segment table 2h #0h
                                   38   	$$TABKMX61_ACCEL_ZOUT_L$main segment table 2h #0h
                                   39   	$$TABKMX61_BTH$main segment table 2h #0h
                                   40   	$$TABKMX61_BTSC$main segment table 2h #0h
                                   41   	$$TABKMX61_BUF_CLEAR$main segment table 2h #0h
                                   42   	$$TABKMX61_BUF_CTRL1$main segment table 2h #0h
                                   43   	$$TABKMX61_BUF_CTRL1_CFGDAT$main segment table 2h #0h
                                   44   	$$TABKMX61_BUF_CTRL2$main segment table 2h #0h
                                   45   	$$TABKMX61_BUF_CTRL2_CFGDAT$main segment table 2h #0h
                                   46   	$$TABKMX61_BUF_READ$main segment table 2h #0h
                                   47   	$$TABKMX61_BUF_STATUS_H$main segment table 2h #0h
                                   48   	$$TABKMX61_BUF_STATUS_L$main segment table 2h #0h
                                   49   	$$TABKMX61_BUF_STATUS_REG$main segment table 2h #0h
                                   50   	$$TABKMX61_BUF_THRESH_H$main segment table 2h #0h
                                   51   	$$TABKMX61_BUF_THRESH_L$main segment table 2h #0h
                                   52   	$$TABKMX61_CNTL1$main segment table 2h #0h
                                   53   	$$TABKMX61_CNTL1_CFGDAT$main segment table 2h #0h
                                   54   	$$TABKMX61_CNTL2$main segment table 2h #0h
                                   55   	$$TABKMX61_CNTL2_CFGDAT$main segment table 2h #0h
                                   56   	$$TABKMX61_COTR$main segment table 2h #0h
                                   57   	$$TABKMX61_I2C_ADDR$main segment table 2h #0h
                                   58   	$$TABKMX61_INC1$main segment table 2h #0h
                                   59   	$$TABKMX61_INC1_CFGDAT$main segment table 2h #0h
                                   60   	$$TABKMX61_INC2$main segment table 2h #0h
                                   61   	$$TABKMX61_INC3$main segment table 2h #0h
                                   62   	$$TABKMX61_INC3_CFGDAT$main segment table 2h #0h
                                   63   	$$TABKMX61_INL$main segment table 2h #0h
                                   64   	$$TABKMX61_INS1$main segment table 2h #0h
                                   65   	$$TABKMX61_INS2$main segment table 2h #0h
                                   66   	$$TABKMX61_MAG_XOUT_H$main segment table 2h #0h
                                   67   	$$TABKMX61_MAG_XOUT_L$main segment table 2h #0h
                                   68   	$$TABKMX61_MAG_YOUT_H$main segment table 2h #0h
                                   69   	$$TABKMX61_MAG_YOUT_L$main segment table 2h #0h
                                   70   	$$TABKMX61_MAG_ZOUT_H$main segment table 2h #0h
                                   71   	$$TABKMX61_MAG_ZOUT_L$main segment table 2h #0h
                                   72   	$$TABKMX61_ODCNTL$main segment table 2h #0h
                                   73   	$$TABKMX61_ODCNTL_CFGDAT$main segment table 2h #0h
                                   74   	$$TABKMX61_SELF_TEST$main segment table 2h #0h
                                   75   	$$TABKMX61_SELF_TEST_CFGDAT$main segment table 2h #0h
                                   76   	$$TABKMX61_SN_1$main segment table 2h #0h
                                   77   	$$TABKMX61_SN_2$main segment table 2h #0h
                                   78   	$$TABKMX61_SN_3$main segment table 2h #0h
                                   79   	$$TABKMX61_SN_4$main segment table 2h #0h
                                   80   	$$TABKMX61_STATUS_REG$main segment table 2h #0h
                                   81   	$$TABKMX61_STBY_REG$main segment table 2h #0h
                                   82   	$$TABKMX61_TEMP_EN_CNTL$main segment table 2h #0h
                                   83   	$$TABKMX61_TEMP_EN_CNTL_CFGDAT$main segment table 2h #0h
                                   84   	$$TABKMX61_TEMP_OUT_H$main segment table 2h #0h
                                   85   	$$TABKMX61_TEMP_OUT_L$main segment table 2h #0h
                                   86   	$$TABKMX61_WHO_AM_I$main segment table 2h #0h
                                   87   	$$TABKMX61_WUFC$main segment table 2h #0h
                                   88   	$$TABKMX61_WUFC_CFGDAT$main segment table 2h #0h
                                   89   	$$TABKMX61_WUFTH$main segment table 2h #0h
                                   90   	$$TABKMX61_WUFTH_CFGDAT$main segment table 2h #0h
                                   91   	$$TABKMX61_XOUT_HPF_H$main segment table 2h #0h
                                   92   	$$TABKMX61_XOUT_HPF_L$main segment table 2h #0h
                                   93   	$$TABKMX61_YOUT_HPF_H$main segment table 2h #0h
                                   94   	$$TABKMX61_YOUT_HPF_L$main segment table 2h #0h
                                   95   	$$TABKMX61_ZOUT_HPF_H$main segment table 2h #0h
                                   96   	$$TABKMX61_ZOUT_HPF_L$main segment table 2h #0h
                                   97   	$$TABManufact_ID$main segment table 2h #0h
                                   98   	$$TABProx_ModeCTR$main segment table 2h #0h
                                   99   	$$TABProx_PS_LSB$main segment table 2h #0h
                                  100   	$$TABProx_PS_MSB$main segment table 2h #0h
                                  101   	$$TAB_uartSetParam$main segment table 2h #0h
                                  102   	$$_funcI2CFin$main segment code 2h #0h
                                  103   	$$_funcUartFin$main segment code 2h #0h
                                  104   	$$_intI2c$main segment code 2h #0h
                                  105   	$$_intPB2$main segment code 2h #0h
                                  106   	$$_intUart$main segment code 2h #0h
                                  107   	$$analog_comparator$main segment code 2h #0h
                                  108   	$$blinkRGB$main segment code 2h #0h
                                  109   	$$checkI2C$main segment code 2h #0h
                                  110   	$$main$main segment code 2h #0h
                                  111   	$$main_clrWDT$main segment code 2h #0h
                                  112   	$$main_reqNotHalt$main segment code 2h #0h
                                  113   	$$sweepRGB$main segment code 2h #0h
                                  114   	$$write$main segment code 2h #0h
                                  115   	STACKSEG 0100h
                                  116   CVERSION 3.41.8
                                  117   CGLOBAL 01H 03H 0000H "NOPms" 08H 02H 0C3H 00H 81H 0aH 00H 00H 07H
                                  118   CGLOBAL 01H 03H 0000H "checkI2C" 08H 02H 0BDH 00H 81H 02H 00H 00H 07H
                                  119   CGLOBAL 01H 03H 0000H "main_clrWDT" 08H 02H 0B1H 00H 80H 00H 00H 00H 07H
                                  120   CSGLOBAL 03H 0000H "_funcUartFin" 08H 02H 0BBH 00H 81H 02H 00H 00H 07H
                                  121   CGLOBAL 01H 03H 0000H "main_reqNotHalt" 08H 02H 0BEH 00H 80H 00H 00H 00H 07H
                                  122   CGLOBAL 01H 03H 0000H "GetUART_Command" 08H 02H 0C7H 00H 81H 08H 00H 00H 07H
                                  123   CSGLOBAL 03H 0000H "Initialization" 08H 02H 0B2H 00H 81H 04H 00H 00H 07H
                                  124   CGLOBAL 01H 03H 0000H "PortA_Digital_Inputs" 08H 02H 0EAH 00H 80H 00H 00H 00H 07H
                                  125   CGLOBAL 01H 03H 0000H "BLINK" 08H 02H 0C5H 00H 81H 02H 00H 00H 07H
                                  126   CGLOBAL 01H 03H 0000H "main" 08H 02H 0CCH 00H 80H 06H 00H 00H 01H
                                  127   CSGLOBAL 03H 0000H "_intUart" 08H 02H 0BFH 00H 80H 00H 00H 00H 07H
                                  128   CGLOBAL 01H 03H 0000H "I2C_Write" 08H 02H 0B9H 00H 83H 10H 00H 00H 07H
                                  129   CGLOBAL 01H 03H 0000H "OutputPWM" 08H 02H 0C4H 00H 80H 00H 00H 00H 07H
                                  130   CGLOBAL 01H 03H 0000H "NOP1000" 08H 02H 0C2H 00H 80H 00H 00H 00H 07H
                                  131   CSGLOBAL 03H 0000H "_intI2c" 08H 02H 0C0H 00H 81H 02H 00H 00H 07H
                                  132   CGLOBAL 01H 03H 0000H "write" 08H 02H 0B7H 00H 83H 08H 00H 00H 01H
                                  133   CSGLOBAL 03H 0000H "SetOSC" 08H 02H 0B3H 00H 80H 00H 00H 00H 07H
                                  134   CGLOBAL 01H 03H 0000H "PortC_Low" 08H 02H 0B6H 00H 80H 00H 00H 00H 07H
                                  135   CGLOBAL 01H 03H 0000H "GetColorUART_Command" 08H 02H 0C9H 00H 81H 06H 00H 00H 00H
                                  136   CGLOBAL 01H 03H 0000H "blinkRGB" 08H 02H 0CBH 00H 81H 04H 00H 00H 07H
                                  137   CGLOBAL 01H 03H 0000H "sweepRGB" 08H 02H 0CAH 00H 81H 04H 00H 00H 07H
                                  138   CSGLOBAL 03H 0000H "_intPB2" 08H 02H 0C1H 00H 80H 00H 00H 00H 07H
                                  139   CGLOBAL 01H 03H 0000H "SET_RGB" 08H 02H 0C8H 00H 82H 04H 00H 00H 07H
                                  140   CGLOBAL 01H 03H 0000H "PortB_Low" 08H 02H 0B5H 00H 80H 00H 00H 00H 07H
                                  141   CGLOBAL 01H 03H 0000H "I2C_Read" 08H 02H 0B8H 00H 83H 10H 00H 00H 07H
                                  142   CGLOBAL 01H 03H 0000H "PortA_Low" 08H 02H 0B4H 00H 80H 00H 00H 00H 07H
                                  143   CGLOBAL 01H 03H 0000H "analog_comparator" 08H 02H 0E6H 00H 80H 00H 00H 00H 07H
                                  144   CSGLOBAL 03H 0000H "_funcI2CFin" 08H 02H 0BCH 00H 81H 02H 00H 00H 07H
                                  145   CGLOBAL 01H 03H 0000H "PWM_SET" 08H 02H 0C6H 00H 81H 02H 00H 00H 07H
                                  146   CGLOBAL 01H 03H 0000H "Init_KMX61" 08H 02H 0BAH 00H 81H 08H 00H 00H 07H
                                  147   CGLOBAL 01H 03H 0000H "PinB0_PWM" 08H 02H 0EBH 00H 80H 00H 00H 00H 07H
                                  148   CSTRUCTTAG 0000H 0000H 0005H 0006H 0000000AH "_Notag"
                                  149   CSTRUCTMEM 42H 00000004H 00000000H "br" 02H 00H 02H
                                  150   CSTRUCTMEM 42H 00000001H 00000004H "lg" 02H 00H 00H
                                  151   CSTRUCTMEM 42H 00000001H 00000005H "pt" 02H 00H 00H
                                  152   CSTRUCTMEM 42H 00000001H 00000006H "stp" 02H 00H 00H
                                  153   CSTRUCTMEM 42H 00000001H 00000007H "neg" 02H 00H 00H
                                  154   CSTRUCTMEM 42H 00000001H 00000008H "dir" 02H 00H 00H
                                  155   CSTRUCTTAG 0000H 0000H 0004H 0002H 00000008H "_Notag"
                                  156   CSTRUCTMEM 43H 00000004H 00000000H "quot" 02H 00H 02H
                                  157   CSTRUCTMEM 43H 00000004H 00000004H "rem" 02H 00H 02H
                                  158   CSTRUCTTAG 0000H 0000H 0003H 0002H 00000004H "_Notag"
                                  159   CSTRUCTMEM 43H 00000002H 00000000H "quot" 02H 00H 01H
                                  160   CSTRUCTMEM 43H 00000002H 00000002H "rem" 02H 00H 01H
                                  161   CSTRUCTTAG 0000H 0000H 0002H 000CH 00000016H "_Notag"
                                  162   CSTRUCTMEM 42H 00000002H 00000000H "_Mode" 02H 00H 08H
                                  163   CSTRUCTMEM 43H 00000002H 00000002H "_Handle" 02H 00H 08H
                                  164   CSTRUCTMEM 42H 00000002H 00000004H "_Buf" 04H 03H 00H 00H 00H
                                  165   CSTRUCTMEM 42H 00000002H 00000006H "_Bend" 04H 03H 00H 00H 00H
                                  166   CSTRUCTMEM 42H 00000002H 00000008H "_Next" 04H 03H 00H 00H 00H
                                  167   CSTRUCTMEM 42H 00000002H 0000000AH "_Rend" 04H 03H 00H 00H 00H
                                  168   CSTRUCTMEM 42H 00000002H 0000000CH "_Rsave" 04H 03H 00H 00H 00H
                                  169   CSTRUCTMEM 42H 00000002H 0000000EH "_Wend" 04H 03H 00H 00H 00H
                                  170   CSTRUCTMEM 42H 00000002H 00000010H "_Back" 05H 01H 02H 00H 00H 00H
                                  171   CSTRUCTMEM 42H 00000001H 00000012H "_Cbuf" 02H 00H 00H
                                  172   CSTRUCTMEM 42H 00000001H 00000013H "_Nback" 02H 00H 00H
                                  173   CSTRUCTMEM 43H 00000002H 00000014H "_Tmpnam" 04H 03H 00H 00H 00H
                                  174   CSTRUCTTAG 0000H 0000H 0001H 0001H 00000004H "_Notag"
                                  175   CSTRUCTMEM 42H 00000004H 00000000H "_Off" 02H 00H 02H
                                  176   CSTRUCTTAG 0000H 0000H 0000H 0008H 00000001H "_Notag"
                                  177   CSTRUCTMEM 52H 00000001H 00000000H "b0" 02H 00H 00H
                                  178   CSTRUCTMEM 52H 00000001H 00000001H "b1" 02H 00H 00H
                                  179   CSTRUCTMEM 52H 00000001H 00000002H "b2" 02H 00H 00H
                                  180   CSTRUCTMEM 52H 00000001H 00000003H "b3" 02H 00H 00H
                                  181   CSTRUCTMEM 52H 00000001H 00000004H "b4" 02H 00H 00H
                                  182   CSTRUCTMEM 52H 00000001H 00000005H "b5" 02H 00H 00H
                                  183   CSTRUCTMEM 52H 00000001H 00000006H "b6" 02H 00H 00H
                                  184   CSTRUCTMEM 52H 00000001H 00000007H "b7" 02H 00H 00H
                                  185   CUNIONTAG 0000H 0000H 0006H 0006H 00000006H "_Notag"
                                  186   CUNIONMEM 42H 00000001H "_uchar" 02H 00H 00H
                                  187   CUNIONMEM 42H 00000006H "_ucharArr" 05H 01H 06H 00H 00H 00H
                                  188   CUNIONMEM 42H 00000002H "_uint" 02H 00H 01H
                                  189   CUNIONMEM 42H 00000006H "_uintArr" 05H 01H 03H 00H 00H 01H
                                  190   CUNIONMEM 43H 00000006H "_intArr" 05H 01H 03H 00H 00H 01H
                                  191   CUNIONMEM 43H 00000004H "_float" 02H 00H 03H
                                  192   CTYPEDEF 0000H 0000H 43H "_Ptrdifft" 02H 00H 01H
                                  193   CTYPEDEF 0000H 0000H 42H "_Sizet" 02H 00H 01H
                                  194   CTYPEDEF 0000H 0000H 43H "tUartSetParam" 04H 00H 05H 05H 00H
                                  195   CTYPEDEF 0000H 0000H 42H "size_t" 02H 00H 01H
                                  196   CTYPEDEF 0000H 0000H 43H "cbfUart" 0AH 03H 00H 02H 5EH 00H 00H 00H 00H 00H 07H
                                  197   CTYPEDEF 0000H 0000H 43H "fpos_t" 04H 00H 05H 01H 00H
                                  198   CTYPEDEF 0000H 0000H 43H "cbfI2c" 0AH 03H 00H 02H 73H 00H 00H 00H 00H 00H 07H
                                  199   CTYPEDEF 0000H 0000H 03H "_Cmpfun_nf" 08H 02H 31H 00H 00H 00H 00H 00H 01H
                                  200   CTYPEDEF 0000H 0000H 03H "_Cmpfun_nn" 08H 02H 30H 00H 00H 00H 00H 00H 01H
                                  201   CTYPEDEF 0000H 0000H 03H "_Cmpfun_ff" 08H 02H 33H 00H 00H 00H 00H 00H 01H
                                  202   CTYPEDEF 0000H 0000H 03H "_Cmpfun_fn" 08H 02H 32H 00H 00H 00H 00H 00H 01H
                                  203   CTYPEDEF 0000H 0000H 43H "FILE" 04H 00H 05H 02H 00H
                                  204   CTYPEDEF 0000H 0000H 43H "div_t" 04H 00H 05H 03H 00H
                                  205   CTYPEDEF 0000H 0000H 43H "ldiv_t" 04H 00H 05H 04H 00H
                                  206   CTYPEDEF 0000H 0000H 43H "_BYTE_FIELD" 04H 00H 05H 00H 00H
                                  207   CSGLOBAL 42H 0001H "KnotsUnit" 02H 00H 00H
                                  208   CSGLOBAL 42H 0002H "bulbMode" 02H 00H 01H
                                  209   CGLOBAL 00H 42H 0001H "_flgUartFin" 02H 00H 00H
                                  210   CGLOBAL 01H 00H 0001H "KMX61_WUFC" 02H 00H 00H
                                  211   CSGLOBAL 42H 0002H "i" 02H 00H 01H
                                  212   CSGLOBAL 42H 0002H "j" 02H 00H 01H
                                  213   CSGLOBAL 42H 0002H "k" 02H 00H 01H
                                  214   CSGLOBAL 42H 0002H "w" 02H 00H 01H
                                  215   CSGLOBAL 42H 0002H "x" 02H 00H 01H
                                  216   CSGLOBAL 42H 0001H "bulbState" 02H 00H 00H
                                  217   CSGLOBAL 42H 0002H "y" 02H 00H 01H
                                  218   CSGLOBAL 42H 0002H "z" 02H 00H 01H
                                  219   CSGLOBAL 43H 0008H "KnotsSpeed" 02H 00H 09H
                                  220   CSGLOBAL 43H 0008H "Latitude" 02H 00H 09H
                                  221   CSGLOBAL 43H 0008H "HomeTolerance" 02H 00H 09H
                                  222   CGLOBAL 00H 43H 0004H "SensorReturn" 02H 00H 03H
                                  223   CSGLOBAL 42H 0002H "Eleveation" 02H 00H 01H
                                  224   CGLOBAL 01H 00H 0001H "KMX61_INC3_CFGDAT" 02H 00H 00H
                                  225   CGLOBAL 01H 00H 0001H "KMX61_TEMP_EN_CNTL_CFGDAT" 02H 00H 00H
                                  226   CSGLOBAL 42H 0002H "hexToDecOffset" 02H 00H 01H
                                  227   CSGLOBAL 42H 0001H "ReceiverState" 02H 00H 00H
                                  228   CSGLOBAL 42H 0001H "LonDir" 02H 00H 00H
                                  229   CGLOBAL 01H 00H 0001H "KMX61_INC1_CFGDAT" 02H 00H 00H
                                  230   CGLOBAL 01H 00H 0001H "KMX61_CNTL1_CFGDAT" 02H 00H 00H
                                  231   CSGLOBAL 42H 0002H "CheckPointIndex" 02H 00H 01H
                                  232   CGLOBAL 01H 00H 0001H "KMX61_CNTL2_CFGDAT" 02H 00H 00H
                                  233   CGLOBAL 01H 00H 0001H "KMX61_WUFC_CFGDAT" 02H 00H 00H
                                  234   CGLOBAL 01H 00H 0001H "Manufact_ID" 02H 00H 00H
                                  235   CSGLOBAL 43H 0008H "Geoid" 02H 00H 09H
                                  236   CSGLOBAL 42H 0004H "Date" 05H 01H 02H 00H 00H 01H
                                  237   CSGLOBAL 42H 0320H "val" 05H 01H 20H 03H 00H 00H
                                  238   CGLOBAL 00H 43H 0006H "uniRawSensorOut" 04H 00H 06H 06H 00H
                                  239   CGLOBAL 01H 42H 0001H "DoorOpen" 02H 00H 00H
                                  240   CGLOBAL 01H 00H 0001H "ALS0_LSB" 02H 00H 00H
                                  241   CSGLOBAL 42H 0008H "str" 05H 01H 08H 00H 00H 00H
                                  242   CGLOBAL 01H 00H 0001H "ALS0_MSB" 02H 00H 00H
                                  243   CGLOBAL 01H 00H 0001H "KMX61_BTSC" 02H 00H 00H
                                  244   CSGLOBAL 43H 0028H "LatDest" 05H 01H 05H 00H 00H 09H
                                  245   CSGLOBAL 42H 0003H "commandVal" 05H 01H 03H 00H 00H 00H
                                  246   CGLOBAL 01H 00H 0001H "KMX61_ODCNTL" 02H 00H 00H
                                  247   CGLOBAL 01H 00H 0001H "KMX61_COTR" 02H 00H 00H
                                  248   CGLOBAL 01H 00H 0001H "KMX61_STATUS_REG" 02H 00H 00H
                                  249   CSGLOBAL 43H 0008H "Course" 02H 00H 09H
                                  250   CSGLOBAL 42H 0018H "GSV_Info" 05H 01H 0CH 00H 00H 01H
                                  251   CSGLOBAL 43H 0008H "PDOP" 02H 00H 09H
                                  252   CSGLOBAL 42H 0001H "isTrueNorth" 02H 00H 00H
                                  253   CGLOBAL 01H 00H 0001H "KMX61_WUFTH" 02H 00H 00H
                                  254   CGLOBAL 01H 00H 0001H "KMX61_STBY_REG" 02H 00H 00H
                                  255   CSGLOBAL 42H 0002H "flag" 02H 00H 01H
                                  256   CSGLOBAL 43H 0004H "outputVal" 02H 00H 02H
                                  257   CGLOBAL 01H 00H 0001H "KMX61_INC1" 02H 00H 00H
                                  258   CGLOBAL 01H 00H 0001H "KMX61_INC2" 02H 00H 00H
                                  259   CGLOBAL 01H 00H 0001H "KMX61_INC3" 02H 00H 00H
                                  260   CGLOBAL 01H 00H 0001H "KMX61_ACCEL_YOUT_H" 02H 00H 00H
                                  261   CGLOBAL 01H 00H 0001H "KMX61_ACCEL_YOUT_L" 02H 00H 00H
                                  262   CGLOBAL 01H 00H 0001H "KMX61_INS1" 02H 00H 00H
                                  263   CGLOBAL 01H 00H 0001H "KMX61_INS2" 02H 00H 00H
                                  264   CSGLOBAL 42H 0001H "LEDFlashFlag" 02H 00H 00H
                                  265   CSGLOBAL 42H 0002H "bulbIntensity" 02H 00H 01H
                                  266   CGLOBAL 01H 00H 0001H "KMX61_MAG_YOUT_H" 02H 00H 00H
                                  267   CGLOBAL 01H 00H 0001H "KMX61_MAG_YOUT_L" 02H 00H 00H
                                  268   CSGLOBAL 42H 0002H "fixQuality" 02H 00H 01H
                                  269   CGLOBAL 01H 00H 0001H "KMX61_WUFTH_CFGDAT" 02H 00H 00H
                                  270   CGLOBAL 01H 00H 0001H "KMX61_BUF_THRESH_H" 02H 00H 00H
                                  271   CGLOBAL 01H 00H 0001H "KMX61_BUF_THRESH_L" 02H 00H 00H
                                  272   CSGLOBAL 42H 0002H "checkSum" 02H 00H 01H
                                  273   CSGLOBAL 43H 0008H "VDOP" 02H 00H 09H
                                  274   CGLOBAL 01H 00H 0001H "KMX61_BUF_CLEAR" 02H 00H 00H
                                  275   CSGLOBAL 43H 0028H "LonDest" 05H 01H 05H 00H 00H 09H
                                  276   CSGLOBAL 43H 0008H "prevBulbIntensity" 02H 00H 09H
                                  277   CSGLOBAL 01H 000AH "_uartSetParam" 04H 00H 05H 05H 00H
                                  278   CSGLOBAL 43H 0004H "R_Value" 02H 00H 02H
                                  279   CSGLOBAL 43H 0004H "B_Value" 02H 00H 02H
                                  280   CSGLOBAL 43H 0008H "GroundSpeed" 02H 00H 09H
                                  281   CSGLOBAL 43H 0004H "G_Value" 02H 00H 02H
                                  282   CSGLOBAL 42H 0002H "bulbEnable" 02H 00H 01H
                                  283   CGLOBAL 01H 00H 0001H "KMX61_ODCNTL_CFGDAT" 02H 00H 00H
                                  284   CSGLOBAL 42H 0001H "SensorPlatformSelection" 02H 00H 00H
                                  285   CSGLOBAL 42H 0001H "LatLonValid" 02H 00H 00H
                                  286   CSGLOBAL 42H 0002H "Mode" 05H 01H 02H 00H 00H 00H
                                  287   CGLOBAL 01H 00H 0001H "Prox_ModeCTR" 02H 00H 00H
                                  288   CGLOBAL 01H 00H 0001H "KMX61_BTH" 02H 00H 00H
                                  289   CGLOBAL 01H 00H 0001H "KMX61_TEMP_EN_CNTL" 02H 00H 00H
                                  290   CGLOBAL 01H 00H 0001H "KMX61_CNTL1" 02H 00H 00H
                                  291   CGLOBAL 01H 00H 0001H "KMX61_CNTL2" 02H 00H 00H
                                  292   CGLOBAL 01H 00H 0001H "KMX61_XOUT_HPF_L" 02H 00H 00H
                                  293   CSGLOBAL 42H 0001H "LEDChangeFlag" 02H 00H 00H
                                  294   CGLOBAL 01H 00H 0001H "KMX61_XOUT_HPF_H" 02H 00H 00H
                                  295   CGLOBAL 01H 00H 0001H "ALS1_LSB" 02H 00H 00H
                                  296   CSGLOBAL 42H 0002H "sigDigits" 02H 00H 01H
                                  297   CSGLOBAL 42H 0001H "LatDir" 02H 00H 00H
                                  298   CGLOBAL 01H 00H 0001H "ALS1_MSB" 02H 00H 00H
                                  299   CGLOBAL 01H 42H 0002H "TimeFlag" 02H 00H 01H
                                  300   CSGLOBAL 42H 0002H "isSettingMode" 02H 00H 01H
                                  301   CSGLOBAL 42H 0002H "isNeg" 02H 00H 01H
                                  302   CGLOBAL 01H 00H 0001H "KMX61_INL" 02H 00H 00H
                                  303   CSGLOBAL 43H 0008H "MagDegrees" 02H 00H 09H
                                  304   CGLOBAL 01H 00H 0001H "KMX61_ZOUT_HPF_L" 02H 00H 00H
                                  305   CGLOBAL 01H 00H 0001H "KMX61_ZOUT_HPF_H" 02H 00H 00H
                                  306   CGLOBAL 01H 00H 0001H "KMX61_YOUT_HPF_L" 02H 00H 00H
                                  307   CGLOBAL 01H 00H 0001H "KMX61_YOUT_HPF_H" 02H 00H 00H
                                  308   CSGLOBAL 42H 0001H "MagDir" 02H 00H 00H
                                  309   CSGLOBAL 42H 0002H "wordIndex" 02H 00H 01H
                                  310   CGLOBAL 01H 00H 0001H "KMX61_SN_1" 02H 00H 00H
                                  311   CGLOBAL 01H 00H 0001H "KMX61_SN_2" 02H 00H 00H
                                  312   CGLOBAL 01H 00H 0001H "KMX61_SN_3" 02H 00H 00H
                                  313   CGLOBAL 01H 00H 0001H "KMX61_SN_4" 02H 00H 00H
                                  314   CGLOBAL 00H 42H 0001H "_flgPB2Int" 02H 00H 00H
                                  315   CSGLOBAL 42H 0001H "temp" 02H 00H 00H
                                  316   CGLOBAL 00H 42H 0001H "_flgI2CFin" 02H 00H 00H
                                  317   CSGLOBAL 42H 0001H "speedUnit" 02H 00H 00H
                                  318   CGLOBAL 01H 00H 0001H "KMX61_SELF_TEST_CFGDAT" 02H 00H 00H
                                  319   CGLOBAL 01H 00H 0001H "Prox_PS_LSB" 02H 00H 00H
                                  320   CGLOBAL 01H 00H 0001H "Prox_PS_MSB" 02H 00H 00H
                                  321   CSGLOBAL 42H 0002H "Azimuth" 02H 00H 01H
                                  322   CGLOBAL 01H 00H 0001H "KMX61_I2C_ADDR" 02H 00H 00H
                                  323   CGLOBAL 01H 00H 0001H "KMX61_BUF_READ" 02H 00H 00H
                                  324   CSGLOBAL 43H 0008H "TrueDegrees" 02H 00H 09H
                                  325   CGLOBAL 01H 00H 0001H "KMX61_TEMP_OUT_H" 02H 00H 00H
                                  326   CGLOBAL 01H 00H 0001H "KMX61_TEMP_OUT_L" 02H 00H 00H
                                  327   CGLOBAL 00H 42H 0001H "RegVal" 02H 00H 00H
                                  328   CGLOBAL 00H 42H 0001H "_reqNotHalt" 02H 00H 00H
                                  329   CSGLOBAL 43H 0008H "Longitude" 02H 00H 09H
                                  330   CSGLOBAL 43H 0008H "MSL" 02H 00H 09H
                                  331   CGLOBAL 01H 00H 0001H "KMX61_ACCEL_XOUT_H" 02H 00H 00H
                                  332   CGLOBAL 01H 00H 0001H "KMX61_ACCEL_ZOUT_H" 02H 00H 00H
                                  333   CGLOBAL 01H 00H 0001H "KMX61_ACCEL_XOUT_L" 02H 00H 00H
                                  334   CGLOBAL 01H 00H 0001H "KMX61_ACCEL_ZOUT_L" 02H 00H 00H
                                  335   CSGLOBAL 43H 0008H "MagneticVariation" 02H 00H 09H
                                  336   CGLOBAL 01H 00H 0001H "KMX61_BUF_CTRL2_CFGDAT" 02H 00H 00H
                                  337   CGLOBAL 01H 00H 0001H "KMX61_BUF_CTRL1_CFGDAT" 02H 00H 00H
                                  338   CGLOBAL 01H 00H 0001H "KMX61_BUF_CTRL1" 02H 00H 00H
                                  339   CGLOBAL 01H 00H 0001H "KMX61_BUF_CTRL2" 02H 00H 00H
                                  340   CSGLOBAL 42H 0002H "SNR" 02H 00H 01H
                                  341   CSGLOBAL 42H 0014H "buffer" 05H 01H 14H 00H 00H 00H
                                  342   CSGLOBAL 42H 0001H "KMHSpeed" 02H 00H 00H
                                  343   CSGLOBAL 42H 0002H "GSV_index" 02H 00H 01H
                                  344   CSGLOBAL 42H 0064H "word" 05H 01H 64H 00H 00H 00H
                                  345   CGLOBAL 01H 00H 0001H "KMX61_BUF_STATUS_L" 02H 00H 00H
                                  346   CSGLOBAL 42H 0006H "UTC" 05H 01H 03H 00H 00H 01H
                                  347   CGLOBAL 01H 00H 0001H "KMX61_BUF_STATUS_H" 02H 00H 00H
                                  348   CGLOBAL 01H 00H 0001H "KMX61_MAG_XOUT_H" 02H 00H 00H
                                  349   CGLOBAL 01H 00H 0001H "KMX61_MAG_ZOUT_H" 02H 00H 00H
                                  350   CGLOBAL 01H 00H 0001H "KMX61_MAG_XOUT_L" 02H 00H 00H
                                  351   CGLOBAL 01H 00H 0001H "KMX61_MAG_ZOUT_L" 02H 00H 00H
                                  352   CGLOBAL 01H 00H 0001H "KMX61_SELF_TEST" 02H 00H 00H
                                  353   CSGLOBAL 42H 0002H "PRN_num" 02H 00H 01H
                                  354   CSGLOBAL 42H 0001H "SensorIntializationFlag" 02H 00H 00H
                                  355   CGLOBAL 00H 42H 0002H "timer" 02H 00H 01H
                                  356   CSGLOBAL 42H 0002H "numSat" 02H 00H 01H
                                  357   CGLOBAL 01H 00H 0001H "KMX61_WHO_AM_I" 02H 00H 00H
                                  358   CSGLOBAL 42H 0002H "GSV_numMessage" 02H 00H 01H
                                  359   CGLOBAL 01H 00H 0001H "KMX61_BUF_STATUS_REG" 02H 00H 00H
                                  360   CSGLOBAL 43H 0008H "HDOP" 02H 00H 09H
                                  361   CSGLOBAL 42H 0018H "SV_ID" 05H 01H 0CH 00H 00H 01H
                                  362   CSGLOBAL 42H 0001H "isMagNorth" 02H 00H 00H
                                  363   CFILE 0001H 000007EEH "main\\ML610111.H"
                                  364   CFILE 0002H 000000EEH "main\\stdio.h"
                                  365   CFILE 0003H 0000007AH "main\\yvals.h"
                                  366   CFILE 0004H 000000D8H "main\\stdlib.h"
                                  367   CFILE 0005H 0000006FH "uart\\uart.h"
                                  368   CFILE 0006H 00000027H "common\\common.h"
                                  369   CFILE 0007H 00000028H "main\\mcu.h"
                                  370   CFILE 0008H 00000057H "irq\\irq.h"
                                  371   CFILE 0009H 00000045H "i2c\\i2c.h"
                                  372   CFILE 000AH 000001B6H "timer\\timer.h"
                                  373   CFILE 0000H 00000639H "main\\main.c"
                                  374   
  --------------------------      375   	rseg $$main$main
                                  376   CFUNCTION 204
                                  377   
00:0000                           378   _main	:
                                  379   CBLOCK 204 1 283
                                  380   
                                  381   ;;{ 	 
                                  382   CLINEA 0000H 0001H 011BH 0001H 0004H
                                  383   CBLOCK 204 2 283
                                  384   
                                  385   ;;	Initialization(); //Ports, UART, Timers, Oscillator, Comparators, etc.
                                  386   CLINEA 0000H 0001H 011CH 0002H 0047H
00:0000 01-F0'00-00'              387   	bl	_Initialization
                                  388   
                                  389   ;;	main_clrWDT(); 
                                  390   CLINEA 0000H 0001H 011EH 0002H 0010H
00:0004 01-F0'00-00'              391   	bl	_main_clrWDT
                                  392   
                                  393   ;;	BLINK(); 
                                  394   CLINEA 0000H 0001H 011FH 0002H 000AH
00:0008 01-F0'00-00'              395   	bl	_BLINK
                                  396   
                                  397   ;;	OutputPWM(); 
                                  398   CLINEA 0000H 0001H 0120H 0002H 000EH
00:000C 01-F0'00-00'              399   	bl	_OutputPWM
                                  400   
                                  401   ;;	temp = 0xC6u; //1100_0110
                                  402   CLINEA 0000H 0001H 0122H 0002H 001AH
00:0010 C6 00                     403   	mov	r0,	#0c6h
00:0012 11-90 00-00'              404   	st	r0,	NEAR _temp
                                  405   
                                  406   ;;	I2C_Write(0x38u, &Prox_ModeCTR, 1, &temp, 1); 
                                  407   CLINEA 0000H 0001H 0123H 0002H 002FH
00:0016 01 00                     408   	mov	r0,	#01h
00:0018 4E-F0                     409   	push	r0
00:001A 00'00                     410   	mov	r0,	#BYTE1 OFFSET _temp
00:001C 00'01                     411   	mov	r1,	#BYTE2 OFFSET _temp
00:001E 5E-F0                     412   	push	er0
00:0020 01 00                     413   	mov	r0,	#01h
00:0022 4E-F0                     414   	push	r0
00:0024 00'02                     415   	mov	r2,	#BYTE1 OFFSET _Prox_ModeCTR
00:0026 00'03                     416   	mov	r3,	#BYTE2 OFFSET _Prox_ModeCTR
00:0028 38 00                     417   	mov	r0,	#038h
00:002A 01-F0'00-00'              418   	bl	_I2C_Write
00:002E 06 E1                     419   	add	sp,	#6 
                                  420   
                                  421   ;;	main_clrWDT(); 
                                  422   CLINEA 0000H 0001H 0124H 0002H 0010H
00:0030 01-F0'00-00'              423   	bl	_main_clrWDT
                                  424   
                                  425   ;;	I2C_Read(0x38u, &Manufact_ID, 1, uniRawSensorOut._ucharArr, 1); 
                                  426   CLINEA 0000H 0001H 0125H 0002H 0041H
00:0034 01 00                     427   	mov	r0,	#01h
00:0036 4E-F0                     428   	push	r0
00:0038 00'00                     429   	mov	r0,	#BYTE1 OFFSET _uniRawSensorOut
00:003A 00'01                     430   	mov	r1,	#BYTE2 OFFSET _uniRawSensorOut
00:003C 5E-F0                     431   	push	er0
00:003E 01 00                     432   	mov	r0,	#01h
00:0040 4E-F0                     433   	push	r0
00:0042 00'02                     434   	mov	r2,	#BYTE1 OFFSET _Manufact_ID
00:0044 00'03                     435   	mov	r3,	#BYTE2 OFFSET _Manufact_ID
00:0046 38 00                     436   	mov	r0,	#038h
00:0048 01-F0'00-00'              437   	bl	_I2C_Read
00:004C 06 E1                     438   	add	sp,	#6 
                                  439   
                                  440   ;;	main_clrWDT(); 
                                  441   CLINEA 0000H 0001H 0126H 0002H 0010H
00:004E 01-F0'00-00'              442   	bl	_main_clrWDT
                                  443   
                                  444   ;;	I2C_Read(0x38u, &Prox_ModeCTR, 1, uniRawSensorOut._ucharArr, 1);
                                  445   CLINEA 0000H 0001H 0127H 0002H 0041H
00:0052 01 00                     446   	mov	r0,	#01h
00:0054 4E-F0                     447   	push	r0
00:0056 00'00                     448   	mov	r0,	#BYTE1 OFFSET _uniRawSensorOut
00:0058 00'01                     449   	mov	r1,	#BYTE2 OFFSET _uniRawSensorOut
00:005A 5E-F0                     450   	push	er0
00:005C 01 00                     451   	mov	r0,	#01h
00:005E 4E-F0                     452   	push	r0
00:0060 00'02                     453   	mov	r2,	#BYTE1 OFFSET _Prox_ModeCTR
00:0062 00'03                     454   	mov	r3,	#BYTE2 OFFSET _Prox_ModeCTR
00:0064 38 00                     455   	mov	r0,	#038h
00:0066 01-F0'00-00'              456   	bl	_I2C_Read
00:006A 06 E1                     457   	add	sp,	#6 
                                  458   
                                  459   ;;	sweepRGB();
                                  460   CLINEA 0000H 0001H 012AH 0002H 000CH
00:006C 01-F0'00-00'              461   	bl	_sweepRGB
                                  462   
                                  463   ;;	SET_RGB(0,0,0);
                                  464   CLINEA 0000H 0001H 012CH 0002H 0010H
00:0070 00 E0                     465   	mov	er0,	#0 
00:0072 5E-F0                     466   	push	er0
00:0074 00 E2                     467   	mov	er2,	#0 
00:0076 01-F0'00-00'              468   	bl	_SET_RGB
00:007A 02 E1                     469   	add	sp,	#2 
                                  470   
                                  471   ;;	i=j=k=x=y=z=bulbMode =0;
                                  472   CLINEA 0000H 0001H 012DH 0002H 0019H
00:007C 00 E0                     473   	mov	er0,	#0 
00:007E 13-90 00-00'              474   	st	er0,	NEAR _bulbMode
00:0082 13-90 00-00'              475   	st	er0,	NEAR _z
00:0086 13-90 00-00'              476   	st	er0,	NEAR _y
00:008A 13-90 00-00'              477   	st	er0,	NEAR _k
00:008E 13-90 00-00'              478   	st	er0,	NEAR _j
                                  479   
                                  480   ;;	i=x=255;
                                  481   CLINEA 0000H 0001H 012EH 0002H 0009H
00:0092 FF 00                     482   	mov	r0,	#0ffh
00:0094 13-90 00-00'              483   	st	er0,	NEAR _x
00:0098 13-90 00-00'              484   	st	er0,	NEAR _i
                                  485   
                                  486   ;;	outputVal = bulbIntensity = w= 255; 
                                  487   CLINEA 0000H 0001H 012FH 0002H 0025H
00:009C 13-90 00-00'              488   	st	er0,	NEAR _w
00:00A0 13-90 00-00'              489   	st	er0,	NEAR _bulbIntensity
00:00A4 00 E2                     490   	mov	er2,	#0 
00:00A6 13-90 00-00'              491   	st	er0,	NEAR _outputVal
00:00AA 13-92 00-00'              492   	st	er2,	NEAR _outputVal+02h
                                  493   
                                  494   ;;	PWM_SET();
                                  495   CLINEA 0000H 0001H 0130H 0002H 000BH
00:00AE 01-F0'00-00'              496   	bl	_PWM_SET
                                  497   
                                  498   ;;	while(1){    
                                  499   CLINEA 0000H 0001H 0131H 0002H 000EH
00:00B2 00-F0'00-00'              500   	b	_$L29
00:00B6                           501   _$L31 :
                                  502   CBLOCK 204 3 305
                                  503   
                                  504   ;;		main_clrWDT(); 
                                  505   CLINEA 0000H 0001H 0132H 0003H 0011H
00:00B6 01-F0'00-00'              506   	bl	_main_clrWDT
                                  507   
                                  508   ;;		I2C_Read(0x38u, &Prox_PS_LSB, 1, uniRawSensorOut._ucharArr, 1);
                                  509   CLINEA 0000H 0001H 0133H 0003H 0041H
00:00BA 01 00                     510   	mov	r0,	#01h
00:00BC 4E-F0                     511   	push	r0
00:00BE 00'00                     512   	mov	r0,	#BYTE1 OFFSET _uniRawSensorOut
00:00C0 00'01                     513   	mov	r1,	#BYTE2 OFFSET _uniRawSensorOut
00:00C2 5E-F0                     514   	push	er0
00:00C4 01 00                     515   	mov	r0,	#01h
00:00C6 4E-F0                     516   	push	r0
00:00C8 00'02                     517   	mov	r2,	#BYTE1 OFFSET _Prox_PS_LSB
00:00CA 00'03                     518   	mov	r3,	#BYTE2 OFFSET _Prox_PS_LSB
00:00CC 38 00                     519   	mov	r0,	#038h
00:00CE 01-F0'00-00'              520   	bl	_I2C_Read
00:00D2 06 E1                     521   	add	sp,	#6 
                                  522   
                                  523   ;;		main_clrWDT();  
                                  524   CLINEA 0000H 0001H 0134H 0003H 0012H
00:00D4 01-F0'00-00'              525   	bl	_main_clrWDT
                                  526   
                                  527   ;;		GetUART_Command(); 
                                  528   CLINEA 0000H 0001H 0135H 0003H 0015H
00:00D8 01-F0'00-00'              529   	bl	_GetUART_Command
                                  530   
                                  531   ;;		if(commandVal[0] != 0)
                                  532   CLINEA 0000H 0001H 0136H 0003H 0018H
00:00DC 10-90 00-00'              533   	l	r0,	NEAR _commandVal
00:00E0 02 C9                     534   	beq	_$L33
                                  535   
                                  536   ;;			temp = commandVal[0]; 
                                  537   CLINEA 0000H 0001H 0137H 0004H 0019H
00:00E2 11-90 00-00'              538   	st	r0,	NEAR _temp
00:00E6                           539   _$L33 :
                                  540   
                                  541   ;;		if( (temp == 'a') || (temp == 'b') ){
                                  542   CLINEA 0000H 0001H 0139H 0003H 0027H
00:00E6 10-90 00-00'              543   	l	r0,	NEAR _temp
00:00EA 61 70                     544   	cmp	r0,	#061h
00:00EC 02 C9                     545   	beq	_$L36
00:00EE 62 70                     546   	cmp	r0,	#062h
00:00F0 3D C8                     547   	bne	_$L35
00:00F2                           548   _$L36 :
                                  549   CBLOCK 204 4 313
                                  550   
                                  551   ;;			if(bulbState == 1){
                                  552   CLINEA 0000H 0001H 013AH 0004H 0016H
00:00F2 10-90 00-00'              553   	l	r0,	NEAR _bulbState
00:00F6 01 70                     554   	cmp	r0,	#01h
00:00F8 0E C8                     555   	bne	_$L42
                                  556   CBLOCK 204 5 314
                                  557   
                                  558   ;;				outputVal = 0; // off
                                  559   CLINEA 0000H 0001H 013BH 0005H 0019H
00:00FA 00 E0                     560   	mov	er0,	#0 
00:00FC 13-90 00-00'              561   	st	er0,	NEAR _outputVal
00:0100 13-90 00-00'              562   	st	er0,	NEAR _outputVal+02h
                                  563   
                                  564   ;;				PWM_SET(); 
                                  565   CLINEA 0000H 0001H 013CH 0005H 000FH
00:0104 01-F0'00-00'              566   	bl	_PWM_SET
                                  567   
                                  568   ;;				SET_RGB(0,0,0); // off
                                  569   CLINEA 0000H 0001H 013DH 0005H 001AH
00:0108 00 E0                     570   	mov	er0,	#0 
00:010A 5E-F0                     571   	push	er0
00:010C 00 E2                     572   	mov	er2,	#0 
00:010E 01-F0'00-00'              573   	bl	_SET_RGB
00:0112 02 E1                     574   	add	sp,	#2 
                                  575   
                                  576   ;;			else if(bulbState == 2){
                                  577   CLINEA 0000H 0001H 013FH 0004H 001BH
00:0114 26 CE                     578   	bal	_$L47
00:0116                           579   _$L42 :
00:0116 02 70                     580   	cmp	r0,	#02h
00:0118 10 C8                     581   	bne	_$L45
                                  582   CBLOCK 204 6 319
                                  583   
                                  584   ;;				outputVal = bulbIntensity;
                                  585   CLINEA 0000H 0001H 0140H 0005H 001EH
00:011A 12-90 00-00'              586   	l	er0,	NEAR _bulbIntensity
00:011E 00 E2                     587   	mov	er2,	#0 
00:0120 13-90 00-00'              588   	st	er0,	NEAR _outputVal
00:0124 13-92 00-00'              589   	st	er2,	NEAR _outputVal+02h
                                  590   
                                  591   ;;				PWM_SET(); 
                                  592   CLINEA 0000H 0001H 0141H 0005H 000FH
00:0128 01-F0'00-00'              593   	bl	_PWM_SET
                                  594   
                                  595   ;;				SET_RGB(0,0,0);
                                  596   CLINEA 0000H 0001H 0142H 0005H 0013H
00:012C 00 E0                     597   	mov	er0,	#0 
00:012E 5E-F0                     598   	push	er0
00:0130 00 E2                     599   	mov	er2,	#0 
00:0132 01-F0'00-00'              600   	bl	_SET_RGB
00:0136 02 E1                     601   	add	sp,	#2 
                                  602   CBLOCKEND 204 6 323
                                  603   
                                  604   ;;			else{
                                  605   CLINEA 0000H 0001H 0144H 0004H 0008H
00:0138 14 CE                     606   	bal	_$L47
00:013A                           607   _$L45 :
                                  608   CBLOCK 204 7 324
                                  609   
                                  610   ;;				outputVal = 0;
                                  611   CLINEA 0000H 0001H 0145H 0005H 0012H
00:013A 00 E0                     612   	mov	er0,	#0 
00:013C 13-90 00-00'              613   	st	er0,	NEAR _outputVal
00:0140 13-90 00-00'              614   	st	er0,	NEAR _outputVal+02h
                                  615   
                                  616   ;;				PWM_SET(); 
                                  617   CLINEA 0000H 0001H 0146H 0005H 000FH
00:0144 01-F0'00-00'              618   	bl	_PWM_SET
                                  619   
                                  620   ;;				SET_RGB(i,j,k);
                                  621   CLINEA 0000H 0001H 0147H 0005H 0013H
00:0148 12-90 00-00'              622   	l	er0,	NEAR _k
00:014C 5E-F0                     623   	push	er0
00:014E 12-92 00-00'              624   	l	er2,	NEAR _j
00:0152 12-90 00-00'              625   	l	er0,	NEAR _i
00:0156 01-F0'00-00'              626   	bl	_SET_RGB
00:015A 02 E1                     627   	add	sp,	#2 
                                  628   
                                  629   ;;				bulbState = 0;
                                  630   CLINEA 0000H 0001H 0149H 0005H 0012H
00:015C 00 00                     631   	mov	r0,	#00h
00:015E 11-90 00-00'              632   	st	r0,	NEAR _bulbState
                                  633   CBLOCKEND 204 7 330
                                  634   
                                  635   ;;			}
                                  636   CLINEA 0000H 0000H 014AH 0004H 0004H
00:0162                           637   _$L47 :
                                  638   
                                  639   ;;			bulbState++;
                                  640   CLINEA 0000H 0000H 014BH 0004H 000FH
00:0162 0C-F0 00-00'              641   	lea	OFFSET _bulbState
00:0166 2F-FE                     642   	inc	[ea]
                                  643   
                                  644   ;;		else if(temp == 'c'){ 
                                  645   CLINEA 0000H 0001H 014DH 0003H 0018H
00:0168 00-F0'00-00'              646   	b	_$L88
00:016C                           647   _$L35 :
00:016C 63 70                     648   	cmp	r0,	#063h
00:016E 02 C9                     649   	beq	_$M1
00:0170 00-F0'00-00'              650   	b	_$L88
00:0174                           651   _$M1 :
                                  652   CBLOCK 204 8 333
                                  653   
                                  654   ;;			x = i;
                                  655   CLINEA 0000H 0001H 014EH 0004H 0009H
00:0174 12-90 00-00'              656   	l	er0,	NEAR _i
00:0178 13-90 00-00'              657   	st	er0,	NEAR _x
                                  658   
                                  659   ;;			y = j;
                                  660   CLINEA 0000H 0001H 014FH 0004H 0009H
00:017C 12-90 00-00'              661   	l	er0,	NEAR _j
00:0180 13-90 00-00'              662   	st	er0,	NEAR _y
                                  663   
                                  664   ;;			z = k;
                                  665   CLINEA 0000H 0001H 0150H 0004H 0009H
00:0184 12-90 00-00'              666   	l	er0,	NEAR _k
00:0188 13-90 00-00'              667   	st	er0,	NEAR _z
                                  668   
                                  669   ;;			w = bulbIntensity;
                                  670   CLINEA 0000H 0001H 0151H 0004H 0015H
00:018C 12-90 00-00'              671   	l	er0,	NEAR _bulbIntensity
00:0190 13-90 00-00'              672   	st	er0,	NEAR _w
                                  673   
                                  674   ;;			bulbIntensity =0;
                                  675   CLINEA 0000H 0001H 0152H 0004H 0014H
00:0194 00 E0                     676   	mov	er0,	#0 
00:0196 13-90 00-00'              677   	st	er0,	NEAR _bulbIntensity
                                  678   
                                  679   ;;			i = j = k = bulbMode =0; 
                                  680   CLINEA 0000H 0001H 0153H 0004H 001CH
00:019A 13-90 00-00'              681   	st	er0,	NEAR _bulbMode
00:019E 13-90 00-00'              682   	st	er0,	NEAR _k
00:01A2 13-90 00-00'              683   	st	er0,	NEAR _j
00:01A6 13-90 00-00'              684   	st	er0,	NEAR _i
                                  685   
                                  686   ;;			main_clrWDT();  
                                  687   CLINEA 0000H 0001H 0154H 0004H 0013H
00:01AA 01-F0'00-00'              688   	bl	_main_clrWDT
                                  689   
                                  690   ;;			NOPms(100);
                                  691   CLINEA 0000H 0001H 0155H 0004H 000EH
00:01AE 64 00                     692   	mov	r0,	#064h
00:01B0 00 01                     693   	mov	r1,	#00h
00:01B2 01-F0'00-00'              694   	bl	_NOPms
                                  695   
                                  696   ;;			_flgUartFin = 0;
                                  697   CLINEA 0000H 0001H 0157H 0004H 0013H
00:01B6 00 00                     698   	mov	r0,	#00h
00:01B8 11-90 00-00'              699   	st	r0,	NEAR __flgUartFin
                                  700   
                                  701   ;;			uart_stop();
                                  702   CLINEA 0000H 0001H 0158H 0004H 000FH
00:01BC 01-F0'00-00'              703   	bl	_uart_stop
                                  704   
                                  705   ;;			uart_startReceive(commandVal, 3, _funcUartFin);  
                                  706   CLINEA 0000H 0001H 0159H 0004H 0034H
00:01C0 00'00                     707   	mov	r0,	#BYTE1 OFFSET __funcUartFin
00:01C2 00'01                     708   	mov	r1,	#BYTE2 OFFSET __funcUartFin
00:01C4 5E-F0                     709   	push	er0
00:01C6 03 E2                     710   	mov	er2,	#3 
00:01C8 00'00                     711   	mov	r0,	#BYTE1 OFFSET _commandVal
00:01CA 00'01                     712   	mov	r1,	#BYTE2 OFFSET _commandVal
00:01CC 01-F0'00-00'              713   	bl	_uart_startReceive
00:01D0 02 E1                     714   	add	sp,	#2 
                                  715   
                                  716   ;;					break;
                                  717   CLINEA 0000H 0000H 01B5H 0006H 000BH
00:01D2                           718   _$L84 :
                                  719   
                                  720   ;;			while(_flgUartFin != 1){ 
                                  721   CLINEA 0000H 0000H 015BH 0000H 0000H
00:01D2 10-90 00-00'              722   	l	r0,	NEAR __flgUartFin
00:01D6 01 70                     723   	cmp	r0,	#01h
00:01D8 02 C9                     724   	beq	_$M2
00:01DA 00-F0'00-00'              725   	b	_$L53
00:01DE                           726   _$M2 :
                                  727   
                                  728   ;;			}  	
                                  729   CLINEA 0000H 0000H 01B6H 0004H 0007H
00:01DE                           730   _$L52 :
                                  731   
                                  732   ;;			if(bulbMode > 10){
                                  733   CLINEA 0000H 0001H 01B7H 0004H 0015H
00:01DE 12-90 00-00'              734   	l	er0,	NEAR _bulbMode
00:01E2 0A 70                     735   	cmp	r0,	#0ah
00:01E4 00 51                     736   	cmpc	r1,	#00h
00:01E6 0D C3                     737   	ble	_$L86
                                  738   CBLOCK 204 18 439
                                  739   
                                  740   ;;					i=x;
                                  741   CLINEA 0000H 0001H 01B8H 0006H 0009H
00:01E8 12-90 00-00'              742   	l	er0,	NEAR _x
00:01EC 13-90 00-00'              743   	st	er0,	NEAR _i
                                  744   
                                  745   ;;					j=y;
                                  746   CLINEA 0000H 0001H 01B9H 0006H 0009H
00:01F0 12-90 00-00'              747   	l	er0,	NEAR _y
00:01F4 13-90 00-00'              748   	st	er0,	NEAR _j
                                  749   
                                  750   ;;					k=z;
                                  751   CLINEA 0000H 0001H 01BAH 0006H 0009H
00:01F8 12-90 00-00'              752   	l	er0,	NEAR _z
00:01FC 13-90 00-00'              753   	st	er0,	NEAR _k
                                  754   CBLOCKEND 204 18 443
                                  755   
                                  756   ;;			else{
                                  757   CLINEA 0000H 0001H 01BCH 0004H 0008H
00:0200 04 CE                     758   	bal	_$L88
00:0202                           759   _$L86 :
                                  760   CBLOCK 204 19 444
                                  761   
                                  762   ;;				bulbIntensity = w;
                                  763   CLINEA 0000H 0001H 01BDH 0005H 0016H
00:0202 12-90 00-00'              764   	l	er0,	NEAR _w
00:0206 13-90 00-00'              765   	st	er0,	NEAR _bulbIntensity
                                  766   CBLOCKEND 204 19 446
                                  767   
                                  768   ;;			}
                                  769   CLINEA 0000H 0000H 01BEH 0004H 0004H
00:020A                           770   _$L88 :
                                  771   CBLOCKEND 204 8 447
                                  772   
                                  773   ;;		I2C_Read(0x38u, &Prox_PS_MSB, 1, uniRawSensorOut._ucharArr, 1);
                                  774   CLINEA 0000H 0001H 01C1H 0003H 0041H
00:020A 01 00                     775   	mov	r0,	#01h
00:020C 4E-F0                     776   	push	r0
00:020E 00'00                     777   	mov	r0,	#BYTE1 OFFSET _uniRawSensorOut
00:0210 00'01                     778   	mov	r1,	#BYTE2 OFFSET _uniRawSensorOut
00:0212 5E-F0                     779   	push	er0
00:0214 01 00                     780   	mov	r0,	#01h
00:0216 4E-F0                     781   	push	r0
00:0218 00'02                     782   	mov	r2,	#BYTE1 OFFSET _Prox_PS_MSB
00:021A 00'03                     783   	mov	r3,	#BYTE2 OFFSET _Prox_PS_MSB
00:021C 38 00                     784   	mov	r0,	#038h
00:021E 01-F0'00-00'              785   	bl	_I2C_Read
00:0222 06 E1                     786   	add	sp,	#6 
                                  787   CBLOCKEND 204 4 536
                                  788   CBLOCKEND 204 5 536
                                  789   
                                  790   ;;		main_clrWDT(); 
                                  791   CLINEA 0000H 0001H 01C2H 0003H 0011H
00:0224 01-F0'00-00'              792   	bl	_main_clrWDT
                                  793   
                                  794   ;;		I2C_Read(0x38u, &ALS0_LSB, 1, uniRawSensorOut._ucharArr, 1);
                                  795   CLINEA 0000H 0001H 01C3H 0003H 003EH
00:0228 01 00                     796   	mov	r0,	#01h
00:022A 4E-F0                     797   	push	r0
00:022C 00'00                     798   	mov	r0,	#BYTE1 OFFSET _uniRawSensorOut
00:022E 00'01                     799   	mov	r1,	#BYTE2 OFFSET _uniRawSensorOut
00:0230 5E-F0                     800   	push	er0
00:0232 01 00                     801   	mov	r0,	#01h
00:0234 4E-F0                     802   	push	r0
00:0236 00'02                     803   	mov	r2,	#BYTE1 OFFSET _ALS0_LSB
00:0238 00'03                     804   	mov	r3,	#BYTE2 OFFSET _ALS0_LSB
00:023A 38 00                     805   	mov	r0,	#038h
00:023C 01-F0'00-00'              806   	bl	_I2C_Read
00:0240 06 E1                     807   	add	sp,	#6 
                                  808   
                                  809   ;;		main_clrWDT(); 
                                  810   CLINEA 0000H 0001H 01C4H 0003H 0011H
00:0242 01-F0'00-00'              811   	bl	_main_clrWDT
                                  812   
                                  813   ;;		I2C_Read(0x38u, &ALS0_MSB, 1, uniRawSensorOut._ucharArr, 1);
                                  814   CLINEA 0000H 0001H 01C5H 0003H 003EH
00:0246 01 00                     815   	mov	r0,	#01h
00:0248 4E-F0                     816   	push	r0
00:024A 00'00                     817   	mov	r0,	#BYTE1 OFFSET _uniRawSensorOut
00:024C 00'01                     818   	mov	r1,	#BYTE2 OFFSET _uniRawSensorOut
00:024E 5E-F0                     819   	push	er0
00:0250 01 00                     820   	mov	r0,	#01h
00:0252 4E-F0                     821   	push	r0
00:0254 00'02                     822   	mov	r2,	#BYTE1 OFFSET _ALS0_MSB
00:0256 00'03                     823   	mov	r3,	#BYTE2 OFFSET _ALS0_MSB
00:0258 38 00                     824   	mov	r0,	#038h
00:025A 01-F0'00-00'              825   	bl	_I2C_Read
00:025E 06 E1                     826   	add	sp,	#6 
                                  827   
                                  828   ;;		main_clrWDT(); 
                                  829   CLINEA 0000H 0001H 01C6H 0003H 0011H
00:0260 01-F0'00-00'              830   	bl	_main_clrWDT
                                  831   
                                  832   ;;		I2C_Read(0x38u, &ALS1_LSB, 1, uniRawSensorOut._ucharArr, 1);
                                  833   CLINEA 0000H 0001H 01C7H 0003H 003EH
00:0264 01 00                     834   	mov	r0,	#01h
00:0266 4E-F0                     835   	push	r0
00:0268 00'00                     836   	mov	r0,	#BYTE1 OFFSET _uniRawSensorOut
00:026A 00'01                     837   	mov	r1,	#BYTE2 OFFSET _uniRawSensorOut
00:026C 5E-F0                     838   	push	er0
00:026E 01 00                     839   	mov	r0,	#01h
00:0270 4E-F0                     840   	push	r0
00:0272 00'02                     841   	mov	r2,	#BYTE1 OFFSET _ALS1_LSB
00:0274 00'03                     842   	mov	r3,	#BYTE2 OFFSET _ALS1_LSB
00:0276 38 00                     843   	mov	r0,	#038h
00:0278 01-F0'00-00'              844   	bl	_I2C_Read
00:027C 06 E1                     845   	add	sp,	#6 
                                  846   
                                  847   ;;		main_clrWDT(); 
                                  848   CLINEA 0000H 0001H 01C8H 0003H 0011H
00:027E 01-F0'00-00'              849   	bl	_main_clrWDT
                                  850   
                                  851   ;;		I2C_Read(0x38u, &ALS1_MSB, 1, uniRawSensorOut._ucharArr, 1);
                                  852   CLINEA 0000H 0001H 01C9H 0003H 003EH
00:0282 01 00                     853   	mov	r0,	#01h
00:0284 4E-F0                     854   	push	r0
00:0286 00'00                     855   	mov	r0,	#BYTE1 OFFSET _uniRawSensorOut
00:0288 00'01                     856   	mov	r1,	#BYTE2 OFFSET _uniRawSensorOut
00:028A 5E-F0                     857   	push	er0
00:028C 01 00                     858   	mov	r0,	#01h
00:028E 4E-F0                     859   	push	r0
00:0290 00'02                     860   	mov	r2,	#BYTE1 OFFSET _ALS1_MSB
00:0292 00'03                     861   	mov	r3,	#BYTE2 OFFSET _ALS1_MSB
00:0294 38 00                     862   	mov	r0,	#038h
00:0296 01-F0'00-00'              863   	bl	_I2C_Read
00:029A 06 E1                     864   	add	sp,	#6 
                                  865   CBLOCKEND 204 3 458
                                  866   
                                  867   ;;	} 
                                  868   CLINEA 0000H 0000H 01CAH 0002H 0003H
00:029C                           869   _$L29 :
                                  870   
                                  871   ;;	while(1){    
                                  872   CLINEA 0000H 0000H 0131H 0000H 0000H
00:029C 00-F0'00-00'              873   	b	_$L31
                                  874   
                                  875   ;;		I2C_Read(0x38u, &ALS1_MSB, 1, uniRawSensorOut._ucharArr, 1);
                                  876   CBLOCKEND 204 20 533
                                  877   
                                  878   ;;	while(1){    
                                  879   CBLOCKEND 204 2 536
                                  880   
                                  881   ;;			while(_flgUartFin != 1){ 
                                  882   CLINEA 0000H 0000H 015BH 0004H 001CH
00:02A0                           883   _$L53 :
                                  884   
                                  885   ;;				main_clrWDT();
                                  886   CLINEA 0000H 0001H 015CH 0005H 0012H
00:02A0 01-F0'00-00'              887   	bl	_main_clrWDT
                                  888   
                                  889   ;;					if(i==255 || j==255 || k==255){
                                  890   CLINEA 0000H 0001H 015EH 0006H 0024H
00:02A4 12-90 00-00'              891   	l	er0,	NEAR _i
00:02A8 FF 70                     892   	cmp	r0,	#0ffh
00:02AA 00 51                     893   	cmpc	r1,	#00h
00:02AC 0C C9                     894   	beq	_$L56
00:02AE 12-90 00-00'              895   	l	er0,	NEAR _j
00:02B2 FF 70                     896   	cmp	r0,	#0ffh
00:02B4 00 51                     897   	cmpc	r1,	#00h
00:02B6 07 C9                     898   	beq	_$L56
00:02B8 12-90 00-00'              899   	l	er0,	NEAR _k
00:02BC FF 70                     900   	cmp	r0,	#0ffh
00:02BE 00 51                     901   	cmpc	r1,	#00h
00:02C0 02 C9                     902   	beq	_$M3
00:02C2 00-F0'00-00'              903   	b	_$L55
00:02C6                           904   _$M3 :
00:02C6                           905   _$L56 :
                                  906   CBLOCK 204 10 350
                                  907   
                                  908   ;;						main_clrWDT();   
                                  909   CLINEA 0000H 0001H 015FH 0007H 0017H
00:02C6 01-F0'00-00'              910   	bl	_main_clrWDT
                                  911   
                                  912   ;;						bulbMode++; 
                                  913   CLINEA 0000H 0000H 0160H 0007H 0012H
00:02CA 12-90 00-00'              914   	l	er0,	NEAR _bulbMode
00:02CE 81 E0                     915   	add	er0,	#1 
00:02D0 13-90 00-00'              916   	st	er0,	NEAR _bulbMode
                                  917   
                                  918   ;;						if(k==255){
                                  919   CLINEA 0000H 0001H 0161H 0007H 0011H
00:02D4 12-90 00-00'              920   	l	er0,	NEAR _k
00:02D8 FF 70                     921   	cmp	r0,	#0ffh
00:02DA 00 51                     922   	cmpc	r1,	#00h
00:02DC 05 C8                     923   	bne	_$L65
                                  924   CBLOCK 204 11 353
                                  925   
                                  926   ;;							bulbMode+=7;
                                  927   CLINEA 0000H 0001H 0162H 0008H 0013H
00:02DE 12-90 00-00'              928   	l	er0,	NEAR _bulbMode
00:02E2 87 E0                     929   	add	er0,	#7 
00:02E4 13-90 00-00'              930   	st	er0,	NEAR _bulbMode
                                  931   CBLOCKEND 204 11 355
                                  932   
                                  933   ;;						}
                                  934   CLINEA 0000H 0000H 0163H 0007H 0007H
00:02E8                           935   _$L65 :
                                  936   
                                  937   ;;						NOPms(100);
                                  938   CLINEA 0000H 0001H 0164H 0007H 0011H
00:02E8 64 00                     939   	mov	r0,	#064h
00:02EA 00 01                     940   	mov	r1,	#00h
00:02EC 01-F0'00-00'              941   	bl	_NOPms
                                  942   
                                  943   ;;							outputVal = 255;
                                  944   CLINEA 0000H 0001H 0166H 0008H 0017H
00:02F0 FF 00                     945   	mov	r0,	#0ffh
00:02F2 00 01                     946   	mov	r1,	#00h
00:02F4 00 E2                     947   	mov	er2,	#0 
00:02F6 13-90 00-00'              948   	st	er0,	NEAR _outputVal
00:02FA 13-92 00-00'              949   	st	er2,	NEAR _outputVal+02h
                                  950   
                                  951   ;;							PWM_SET(); 
                                  952   CLINEA 0000H 0001H 0167H 0008H 0012H
00:02FE 01-F0'00-00'              953   	bl	_PWM_SET
                                  954   
                                  955   ;;							NOPms(100); 
                                  956   CLINEA 0000H 0001H 0169H 0008H 0013H
00:0302 64 00                     957   	mov	r0,	#064h
00:0304 00 01                     958   	mov	r1,	#00h
00:0306 01-F0'00-00'              959   	bl	_NOPms
                                  960   
                                  961   ;;							outputVal = 0;
                                  962   CLINEA 0000H 0001H 016BH 0008H 0015H
00:030A 00 E0                     963   	mov	er0,	#0 
00:030C 13-90 00-00'              964   	st	er0,	NEAR _outputVal
00:0310 13-90 00-00'              965   	st	er0,	NEAR _outputVal+02h
                                  966   
                                  967   ;;							PWM_SET(); 
                                  968   CLINEA 0000H 0001H 016CH 0008H 0012H
00:0314 01-F0'00-00'              969   	bl	_PWM_SET
                                  970   
                                  971   ;;						NOPms(100); 
                                  972   CLINEA 0000H 0001H 016EH 0007H 0012H
00:0318 64 00                     973   	mov	r0,	#064h
00:031A 00 01                     974   	mov	r1,	#00h
00:031C 01-F0'00-00'              975   	bl	_NOPms
                                  976   
                                  977   ;;						NOPms(100);
                                  978   CLINEA 0000H 0001H 016FH 0007H 0011H
00:0320 64 00                     979   	mov	r0,	#064h
00:0322 00 01                     980   	mov	r1,	#00h
00:0324 01-F0'00-00'              981   	bl	_NOPms
                                  982   
                                  983   ;;						NOPms(100);
                                  984   CLINEA 0000H 0001H 0170H 0007H 0011H
00:0328 64 00                     985   	mov	r0,	#064h
00:032A 00 01                     986   	mov	r1,	#00h
00:032C 01-F0'00-00'              987   	bl	_NOPms
                                  988   
                                  989   ;;						NOPms(100);
                                  990   CLINEA 0000H 0001H 0171H 0007H 0011H
00:0330 64 00                     991   	mov	r0,	#064h
00:0332 00 01                     992   	mov	r1,	#00h
00:0334 01-F0'00-00'              993   	bl	_NOPms
                                  994   
                                  995   ;;						NOPms(100);
                                  996   CLINEA 0000H 0001H 0172H 0007H 0011H
00:0338 64 00                     997   	mov	r0,	#064h
00:033A 00 01                     998   	mov	r1,	#00h
00:033C 01-F0'00-00'              999   	bl	_NOPms
                                 1000   
                                 1001   ;;						NOPms(100);
                                 1002   CLINEA 0000H 0001H 0173H 0007H 0011H
00:0340 64 00                    1003   	mov	r0,	#064h
00:0342 00 01                    1004   	mov	r1,	#00h
00:0344 01-F0'00-00'             1005   	bl	_NOPms
                                 1006   
                                 1007   ;;						NOPms(100);
                                 1008   CLINEA 0000H 0001H 0174H 0007H 0011H
00:0348 64 00                    1009   	mov	r0,	#064h
00:034A 00 01                    1010   	mov	r1,	#00h
00:034C 01-F0'00-00'             1011   	bl	_NOPms
                                 1012   
                                 1013   ;;						NOPms(100);
                                 1014   CLINEA 0000H 0001H 0175H 0007H 0011H
00:0350 64 00                    1015   	mov	r0,	#064h
00:0352 00 01                    1016   	mov	r1,	#00h
00:0354 01-F0'00-00'             1017   	bl	_NOPms
                                 1018   
                                 1019   ;;						NOPms(100);
                                 1020   CLINEA 0000H 0001H 0176H 0007H 0011H
00:0358 64 00                    1021   	mov	r0,	#064h
00:035A 00 01                    1022   	mov	r1,	#00h
00:035C 01-F0'00-00'             1023   	bl	_NOPms
                                 1024   
                                 1025   ;;						NOPms(100);
                                 1026   CLINEA 0000H 0001H 0177H 0007H 0011H
00:0360 64 00                    1027   	mov	r0,	#064h
00:0362 00 01                    1028   	mov	r1,	#00h
00:0364 01-F0'00-00'             1029   	bl	_NOPms
                                 1030   
                                 1031   ;;						NOPms(100);
                                 1032   CLINEA 0000H 0001H 0178H 0007H 0011H
00:0368 64 00                    1033   	mov	r0,	#064h
00:036A 00 01                    1034   	mov	r1,	#00h
00:036C 01-F0'00-00'             1035   	bl	_NOPms
                                 1036   
                                 1037   ;;						NOPms(100);
                                 1038   CLINEA 0000H 0001H 0179H 0007H 0011H
00:0370 64 00                    1039   	mov	r0,	#064h
00:0372 00 01                    1040   	mov	r1,	#00h
00:0374 01-F0'00-00'             1041   	bl	_NOPms
                                 1042   
                                 1043   ;;						NOPms(100);
                                 1044   CLINEA 0000H 0001H 017AH 0007H 0011H
00:0378 64 00                    1045   	mov	r0,	#064h
00:037A 00 01                    1046   	mov	r1,	#00h
00:037C 01-F0'00-00'             1047   	bl	_NOPms
                                 1048   
                                 1049   ;;						NOPms(100);
                                 1050   CLINEA 0000H 0001H 017BH 0007H 0011H
00:0380 64 00                    1051   	mov	r0,	#064h
00:0382 00 01                    1052   	mov	r1,	#00h
00:0384 01-F0'00-00'             1053   	bl	_NOPms
                                 1054   
                                 1055   ;;						NOPms(100);
                                 1056   CLINEA 0000H 0001H 017CH 0007H 0011H
00:0388 64 00                    1057   	mov	r0,	#064h
00:038A 00 01                    1058   	mov	r1,	#00h
00:038C 01-F0'00-00'             1059   	bl	_NOPms
                                 1060   
                                 1061   ;;						NOPms(100); 
                                 1062   CLINEA 0000H 0001H 017DH 0007H 0012H
00:0390 64 00                    1063   	mov	r0,	#064h
00:0392 00 01                    1064   	mov	r1,	#00h
00:0394 01-F0'00-00'             1065   	bl	_NOPms
                                 1066   
                                 1067   ;;						NOPms(100);
                                 1068   CLINEA 0000H 0001H 017EH 0007H 0011H
00:0398 64 00                    1069   	mov	r0,	#064h
00:039A 00 01                    1070   	mov	r1,	#00h
00:039C 01-F0'00-00'             1071   	bl	_NOPms
                                 1072   
                                 1073   ;;						NOPms(100);
                                 1074   CLINEA 0000H 0001H 017FH 0007H 0011H
00:03A0 64 00                    1075   	mov	r0,	#064h
00:03A2 00 01                    1076   	mov	r1,	#00h
00:03A4 01-F0'00-00'             1077   	bl	_NOPms
                                 1078   
                                 1079   ;;						NOPms(100);
                                 1080   CLINEA 0000H 0001H 0180H 0007H 0011H
00:03A8 64 00                    1081   	mov	r0,	#064h
00:03AA 00 01                    1082   	mov	r1,	#00h
00:03AC 01-F0'00-00'             1083   	bl	_NOPms
                                 1084   
                                 1085   ;;						NOPms(100);
                                 1086   CLINEA 0000H 0001H 0181H 0007H 0011H
00:03B0 64 00                    1087   	mov	r0,	#064h
00:03B2 00 01                    1088   	mov	r1,	#00h
00:03B4 01-F0'00-00'             1089   	bl	_NOPms
                                 1090   
                                 1091   ;;						NOPms(100);
                                 1092   CLINEA 0000H 0001H 0182H 0007H 0011H
00:03B8 64 00                    1093   	mov	r0,	#064h
00:03BA 00 01                    1094   	mov	r1,	#00h
00:03BC 01-F0'00-00'             1095   	bl	_NOPms
                                 1096   
                                 1097   ;;						NOPms(100);
                                 1098   CLINEA 0000H 0001H 0183H 0007H 0011H
00:03C0 64 00                    1099   	mov	r0,	#064h
00:03C2 00 01                    1100   	mov	r1,	#00h
00:03C4 01-F0'00-00'             1101   	bl	_NOPms
                                 1102   
                                 1103   ;;						NOPms(100);
                                 1104   CLINEA 0000H 0001H 0184H 0007H 0011H
00:03C8 64 00                    1105   	mov	r0,	#064h
00:03CA 00 01                    1106   	mov	r1,	#00h
00:03CC 01-F0'00-00'             1107   	bl	_NOPms
                                 1108   
                                 1109   ;;						NOPms(100);
                                 1110   CLINEA 0000H 0001H 0185H 0007H 0011H
00:03D0 64 00                    1111   	mov	r0,	#064h
00:03D2 00 01                    1112   	mov	r1,	#00h
00:03D4 01-F0'00-00'             1113   	bl	_NOPms
                                 1114   
                                 1115   ;;						NOPms(100);
                                 1116   CLINEA 0000H 0001H 0186H 0007H 0011H
00:03D8 64 00                    1117   	mov	r0,	#064h
00:03DA 00 01                    1118   	mov	r1,	#00h
00:03DC 01-F0'00-00'             1119   	bl	_NOPms
                                 1120   
                                 1121   ;;						NOPms(100); 
                                 1122   CLINEA 0000H 0001H 0187H 0007H 0012H
00:03E0 64 00                    1123   	mov	r0,	#064h
00:03E2 00 01                    1124   	mov	r1,	#00h
00:03E4 01-F0'00-00'             1125   	bl	_NOPms
                                 1126   
                                 1127   ;;						main_clrWDT();   
                                 1128   CLINEA 0000H 0001H 0188H 0007H 0017H
00:03E8 01-F0'00-00'             1129   	bl	_main_clrWDT
                                 1130   
                                 1131   ;;						outputVal = 0;
                                 1132   CLINEA 0000H 0001H 018AH 0007H 0014H
00:03EC 00 E0                    1133   	mov	er0,	#0 
00:03EE 13-90 00-00'             1134   	st	er0,	NEAR _outputVal
00:03F2 13-90 00-00'             1135   	st	er0,	NEAR _outputVal+02h
                                 1136   
                                 1137   ;;						PWM_SET(); 
                                 1138   CLINEA 0000H 0001H 018BH 0007H 0011H
00:03F6 01-F0'00-00'             1139   	bl	_PWM_SET
                                 1140   CBLOCKEND 204 10 396
                                 1141   
                                 1142   ;;					}
                                 1143   CLINEA 0000H 0000H 018CH 0006H 0006H
00:03FA                          1144   _$L55 :
                                 1145   
                                 1146   ;;				if(_flgUartFin == 1)
                                 1147   CLINEA 0000H 0001H 018EH 0005H 0018H
00:03FA 10-90 00-00'             1148   	l	r0,	NEAR __flgUartFin
00:03FE 01 70                    1149   	cmp	r0,	#01h
00:0400 02 C8                    1150   	bne	_$M4
00:0402 00-F0'00-00'             1151   	b	_$L52
00:0406                          1152   _$M4 :
                                 1153   
                                 1154   ;;				if(bulbMode==10){
                                 1155   CLINEA 0000H 0001H 0190H 0005H 0015H
00:0406 12-90 00-00'             1156   	l	er0,	NEAR _bulbMode
00:040A 0A 70                    1157   	cmp	r0,	#0ah
00:040C 00 51                    1158   	cmpc	r1,	#00h
00:040E 06 C8                    1159   	bne	_$L69
                                 1160   CBLOCK 204 12 400
                                 1161   
                                 1162   ;;					bulbMode+=1;
                                 1163   CLINEA 0000H 0001H 0191H 0006H 0011H
00:0410 81 E0                    1164   	add	er0,	#1 
00:0412 13-90 00-00'             1165   	st	er0,	NEAR _bulbMode
                                 1166   
                                 1167   ;;					bulbIntensity =0;
                                 1168   CLINEA 0000H 0001H 0192H 0006H 0016H
00:0416 00 E0                    1169   	mov	er0,	#0 
00:0418 13-90 00-00'             1170   	st	er0,	NEAR _bulbIntensity
                                 1171   CBLOCKEND 204 12 403
                                 1172   
                                 1173   ;;				}
                                 1174   CLINEA 0000H 0000H 0193H 0005H 0005H
00:041C                          1175   _$L69 :
                                 1176   
                                 1177   ;;				if(bulbMode > 11)
                                 1178   CLINEA 0000H 0001H 0194H 0005H 0015H
00:041C 12-90 00-00'             1179   	l	er0,	NEAR _bulbMode
00:0420 0B 70                    1180   	cmp	r0,	#0bh
00:0422 00 51                    1181   	cmpc	r1,	#00h
00:0424 03 C3                    1182   	ble	_$L71
                                 1183   
                                 1184   ;;					bulbMode = 0;
                                 1185   CLINEA 0000H 0001H 0195H 0006H 0012H
00:0426 00 E0                    1186   	mov	er0,	#0 
00:0428 13-90 00-00'             1187   	st	er0,	NEAR _bulbMode
00:042C                          1188   _$L71 :
                                 1189   
                                 1190   ;;				if(bulbMode==0){
                                 1191   CLINEA 0000H 0001H 0197H 0005H 0014H
00:042C 12-90 00-00'             1192   	l	er0,	NEAR _bulbMode
00:0430 0E C8                    1193   	bne	_$L73
                                 1194   CBLOCK 204 13 407
                                 1195   
                                 1196   ;;					bulbIntensity = 0;
                                 1197   CLINEA 0000H 0001H 0198H 0006H 0017H
00:0432 00 E0                    1198   	mov	er0,	#0 
00:0434 13-90 00-00'             1199   	st	er0,	NEAR _bulbIntensity
                                 1200   
                                 1201   ;;					i++; 
                                 1202   CLINEA 0000H 0000H 0199H 0006H 000AH
00:0438 12-90 00-00'             1203   	l	er0,	NEAR _i
00:043C 81 E0                    1204   	add	er0,	#1 
00:043E 13-90 00-00'             1205   	st	er0,	NEAR _i
                                 1206   
                                 1207   ;;					j=k=0;
                                 1208   CLINEA 0000H 0001H 019AH 0006H 000BH
00:0442 00 E0                    1209   	mov	er0,	#0 
00:0444 13-90 00-00'             1210   	st	er0,	NEAR _k
00:0448 13-90 00-00'             1211   	st	er0,	NEAR _j
                                 1212   
                                 1213   ;;				else if(bulbMode == 1){
                                 1214   CLINEA 0000H 0001H 019CH 0005H 001BH
00:044C 1B CE                    1215   	bal	_$L79
00:044E                          1216   _$L73 :
00:044E 01 70                    1217   	cmp	r0,	#01h
00:0450 00 51                    1218   	cmpc	r1,	#00h
00:0452 0B C8                    1219   	bne	_$L76
                                 1220   CBLOCK 204 14 412
                                 1221   
                                 1222   ;;					j++; 
                                 1223   CLINEA 0000H 0000H 019DH 0006H 000AH
00:0454 12-90 00-00'             1224   	l	er0,	NEAR _j
00:0458 81 E0                    1225   	add	er0,	#1 
00:045A 13-90 00-00'             1226   	st	er0,	NEAR _j
                                 1227   
                                 1228   ;;					i=k=0;
                                 1229   CLINEA 0000H 0001H 019EH 0006H 000BH
00:045E 00 E0                    1230   	mov	er0,	#0 
00:0460 13-90 00-00'             1231   	st	er0,	NEAR _k
00:0464 13-90 00-00'             1232   	st	er0,	NEAR _i
                                 1233   
                                 1234   ;;				else if(bulbMode == 2){
                                 1235   CLINEA 0000H 0001H 01A0H 0005H 001BH
00:0468 0D CE                    1236   	bal	_$L79
00:046A                          1237   _$L76 :
00:046A 02 70                    1238   	cmp	r0,	#02h
00:046C 00 51                    1239   	cmpc	r1,	#00h
00:046E 0A C8                    1240   	bne	_$L79
                                 1241   CBLOCK 204 15 416
                                 1242   
                                 1243   ;;					k++; 
                                 1244   CLINEA 0000H 0000H 01A1H 0006H 000AH
00:0470 12-90 00-00'             1245   	l	er0,	NEAR _k
00:0474 81 E0                    1246   	add	er0,	#1 
00:0476 13-90 00-00'             1247   	st	er0,	NEAR _k
                                 1248   
                                 1249   ;;					i=j=0;
                                 1250   CLINEA 0000H 0001H 01A2H 0006H 000BH
00:047A 00 E0                    1251   	mov	er0,	#0 
00:047C 13-90 00-00'             1252   	st	er0,	NEAR _j
00:0480 13-90 00-00'             1253   	st	er0,	NEAR _i
                                 1254   CBLOCKEND 204 15 419
                                 1255   
                                 1256   ;;				}  
                                 1257   CLINEA 0000H 0000H 01A3H 0005H 0007H
00:0484                          1258   _$L79 :
                                 1259   CBLOCKEND 204 14 536
                                 1260   
                                 1261   ;;				if(bulbMode > 9){ 
                                 1262   CLINEA 0000H 0001H 01A5H 0005H 0016H
00:0484 12-90 00-00'             1263   	l	er0,	NEAR _bulbMode
00:0488 09 70                    1264   	cmp	r0,	#09h
00:048A 00 51                    1265   	cmpc	r1,	#00h
00:048C 1F C3                    1266   	ble	_$L81
                                 1267   CBLOCKEND 204 13 536
                                 1268   CBLOCK 204 16 421
                                 1269   
                                 1270   ;;					i=j=k=0;
                                 1271   CLINEA 0000H 0001H 01A6H 0006H 000DH
00:048E 00 E0                    1272   	mov	er0,	#0 
00:0490 13-90 00-00'             1273   	st	er0,	NEAR _k
00:0494 13-90 00-00'             1274   	st	er0,	NEAR _j
00:0498 13-90 00-00'             1275   	st	er0,	NEAR _i
                                 1276   
                                 1277   ;;					bulbIntensity++;
                                 1278   CLINEA 0000H 0000H 01A7H 0006H 0015H
00:049C 12-90 00-00'             1279   	l	er0,	NEAR _bulbIntensity
00:04A0 81 E0                    1280   	add	er0,	#1 
00:04A2 13-90 00-00'             1281   	st	er0,	NEAR _bulbIntensity
                                 1282   
                                 1283   ;;					outputVal = bulbIntensity;
                                 1284   CLINEA 0000H 0001H 01A8H 0006H 001FH
00:04A6 00 E2                    1285   	mov	er2,	#0 
00:04A8 13-90 00-00'             1286   	st	er0,	NEAR _outputVal
00:04AC 13-92 00-00'             1287   	st	er2,	NEAR _outputVal+02h
                                 1288   
                                 1289   ;;					PWM_SET();   
                                 1290   CLINEA 0000H 0001H 01A9H 0006H 0012H
00:04B0 01-F0'00-00'             1291   	bl	_PWM_SET
                                 1292   
                                 1293   ;;					SET_RGB(0,0,0);  
                                 1294   CLINEA 0000H 0001H 01AAH 0006H 0016H
00:04B4 00 E0                    1295   	mov	er0,	#0 
00:04B6 5E-F0                    1296   	push	er0
00:04B8 00 E2                    1297   	mov	er2,	#0 
00:04BA 01-F0'00-00'             1298   	bl	_SET_RGB
00:04BE 02 E1                    1299   	add	sp,	#2 
                                 1300   
                                 1301   ;;					NOPms(20);
                                 1302   CLINEA 0000H 0001H 01ABH 0006H 000FH
00:04C0 14 E0                    1303   	mov	er0,	#20
00:04C2 01-F0'00-00'             1304   	bl	_NOPms
                                 1305   
                                 1306   ;;					main_clrWDT();
                                 1307   CLINEA 0000H 0001H 01ACH 0006H 0013H
00:04C6 01-F0'00-00'             1308   	bl	_main_clrWDT
                                 1309   CBLOCKEND 204 16 429
                                 1310   
                                 1311   ;;				else{
                                 1312   CLINEA 0000H 0001H 01AEH 0005H 0009H
00:04CA 0F CE                    1313   	bal	_$L83
00:04CC                          1314   _$L81 :
                                 1315   CBLOCK 204 17 430
                                 1316   
                                 1317   ;;					SET_RGB(i,j,k);  
                                 1318   CLINEA 0000H 0001H 01AFH 0006H 0016H
00:04CC 12-90 00-00'             1319   	l	er0,	NEAR _k
00:04D0 5E-F0                    1320   	push	er0
00:04D2 12-92 00-00'             1321   	l	er2,	NEAR _j
00:04D6 12-90 00-00'             1322   	l	er0,	NEAR _i
00:04DA 01-F0'00-00'             1323   	bl	_SET_RGB
00:04DE 02 E1                    1324   	add	sp,	#2 
                                 1325   
                                 1326   ;;					NOPms(20);
                                 1327   CLINEA 0000H 0001H 01B0H 0006H 000FH
00:04E0 14 E0                    1328   	mov	er0,	#20
00:04E2 01-F0'00-00'             1329   	bl	_NOPms
                                 1330   
                                 1331   ;;					main_clrWDT();
                                 1332   CLINEA 0000H 0001H 01B1H 0006H 0013H
00:04E6 01-F0'00-00'             1333   	bl	_main_clrWDT
                                 1334   CBLOCKEND 204 17 434
                                 1335   
                                 1336   ;;				}
                                 1337   CLINEA 0000H 0000H 01B2H 0005H 0005H
00:04EA                          1338   _$L83 :
                                 1339   
                                 1340   ;;				if(_flgUartFin == 1)
                                 1341   CLINEA 0000H 0001H 01B4H 0005H 0018H
00:04EA 10-90 00-00'             1342   	l	r0,	NEAR __flgUartFin
00:04EE 01 70                    1343   	cmp	r0,	#01h
00:04F0 02 C9                    1344   	beq	_$M5
00:04F2 00-F0'00-00'             1345   	b	_$L84
00:04F6                          1346   _$M5 :
                                 1347   
                                 1348   ;;					break;
                                 1349   CLINEA 0000H 0001H 01B5H 0006H 000BH
00:04F6 00-F0'00-00'             1350   	b	_$L52
                                 1351   CBLOCKEND 204 1 536
                                 1352   CFUNCTIONEND 204
                                 1353   
                                 1354   
  --------------------------     1355   	rseg $$blinkRGB$main
                                 1356   CFUNCTION 203
                                 1357   
00:0000                          1358   _blinkRGB	:
                                 1359   CBLOCK 203 1 540
                                 1360   
                                 1361   ;;void blinkRGB(void){
                                 1362   CLINEA 0000H 0001H 021CH 0001H 0014H
00:0000 CE-F8                    1363   	push	lr
                                 1364   CBLOCK 203 2 540
                                 1365   CRET 0000H
                                 1366   
                                 1367   ;;	SET_RGB(255,0,0);
                                 1368   CLINEA 0000H 0001H 021DH 0002H 0012H
00:0002 00 E0                    1369   	mov	er0,	#0 
00:0004 5E-F0                    1370   	push	er0
00:0006 00 E2                    1371   	mov	er2,	#0 
00:0008 FF 00                    1372   	mov	r0,	#0ffh
00:000A 01-F0'00-00'             1373   	bl	_SET_RGB
00:000E 02 E1                    1374   	add	sp,	#2 
                                 1375   
                                 1376   ;;	NOPms(100);  
                                 1377   CLINEA 0000H 0001H 021EH 0002H 000EH
00:0010 64 00                    1378   	mov	r0,	#064h
00:0012 00 01                    1379   	mov	r1,	#00h
00:0014 01-F0'00-00'             1380   	bl	_NOPms
                                 1381   
                                 1382   ;;	SET_RGB(0,255,0);
                                 1383   CLINEA 0000H 0001H 021FH 0002H 0012H
00:0018 00 E0                    1384   	mov	er0,	#0 
00:001A 5E-F0                    1385   	push	er0
00:001C FF 02                    1386   	mov	r2,	#0ffh
00:001E 00 03                    1387   	mov	r3,	#00h
00:0020 01-F0'00-00'             1388   	bl	_SET_RGB
00:0024 02 E1                    1389   	add	sp,	#2 
                                 1390   
                                 1391   ;;	NOPms(100);  
                                 1392   CLINEA 0000H 0001H 0220H 0002H 000EH
00:0026 64 00                    1393   	mov	r0,	#064h
00:0028 00 01                    1394   	mov	r1,	#00h
00:002A 01-F0'00-00'             1395   	bl	_NOPms
                                 1396   
                                 1397   ;;	SET_RGB(0,0,255);
                                 1398   CLINEA 0000H 0001H 0221H 0002H 0012H
00:002E FF 00                    1399   	mov	r0,	#0ffh
00:0030 00 01                    1400   	mov	r1,	#00h
00:0032 5E-F0                    1401   	push	er0
00:0034 00 E2                    1402   	mov	er2,	#0 
00:0036 00 E0                    1403   	mov	er0,	#0 
00:0038 01-F0'00-00'             1404   	bl	_SET_RGB
00:003C 02 E1                    1405   	add	sp,	#2 
                                 1406   
                                 1407   ;;	NOPms(100);  
                                 1408   CLINEA 0000H 0001H 0222H 0002H 000EH
00:003E 64 00                    1409   	mov	r0,	#064h
00:0040 00 01                    1410   	mov	r1,	#00h
00:0042 01-F0'00-00'             1411   	bl	_NOPms
                                 1412   
                                 1413   ;;	SET_RGB(0,0,0);
                                 1414   CLINEA 0000H 0001H 0223H 0002H 0010H
00:0046 00 E0                    1415   	mov	er0,	#0 
00:0048 5E-F0                    1416   	push	er0
00:004A 00 E2                    1417   	mov	er2,	#0 
00:004C 01-F0'00-00'             1418   	bl	_SET_RGB
00:0050 02 E1                    1419   	add	sp,	#2 
                                 1420   
                                 1421   ;;	SET_RGB(0,0,255);
                                 1422   CLINEA 0000H 0001H 0224H 0002H 0012H
00:0052 FF 00                    1423   	mov	r0,	#0ffh
00:0054 00 01                    1424   	mov	r1,	#00h
00:0056 5E-F0                    1425   	push	er0
00:0058 00 E2                    1426   	mov	er2,	#0 
00:005A 00 E0                    1427   	mov	er0,	#0 
00:005C 01-F0'00-00'             1428   	bl	_SET_RGB
00:0060 02 E1                    1429   	add	sp,	#2 
                                 1430   
                                 1431   ;;	NOPms(100);  
                                 1432   CLINEA 0000H 0001H 0225H 0002H 000EH
00:0062 64 00                    1433   	mov	r0,	#064h
00:0064 00 01                    1434   	mov	r1,	#00h
00:0066 01-F0'00-00'             1435   	bl	_NOPms
                                 1436   CBLOCKEND 203 2 550
                                 1437   
                                 1438   ;;}
                                 1439   CLINEA 0000H 0001H 0226H 0001H 0001H
00:006A 8E-F2                    1440   	pop	pc
                                 1441   CBLOCKEND 203 1 550
                                 1442   CFUNCTIONEND 203
                                 1443   
                                 1444   
  --------------------------     1445   	rseg $$sweepRGB$main
                                 1446   CFUNCTION 202
                                 1447   
00:0000                          1448   _sweepRGB	:
                                 1449   CBLOCK 202 1 552
                                 1450   
                                 1451   ;;void sweepRGB(void){	  
                                 1452   CLINEA 0000H 0001H 0228H 0001H 0017H
00:0000 CE-F8                    1453   	push	lr
                                 1454   CBLOCK 202 2 552
                                 1455   CRET 0000H
                                 1456   
                                 1457   ;;		for(i=0;i<256;i++){
                                 1458   CLINEA 0000H 0001H 0229H 0007H 000AH
00:0002 00 E0                    1459   	mov	er0,	#0 
00:0004 13-90 00-00'             1460   	st	er0,	NEAR _i
                                 1461   
                                 1462   ;;		for(i=0;i<256;i++){
                                 1463   CLINEA 0000H 0000H 0229H 0011H 0013H
00:0008                          1464   _$L103 :
                                 1465   CBLOCK 202 3 553
                                 1466   
                                 1467   ;;			main_clrWDT(); 
                                 1468   CLINEA 0000H 0001H 022AH 0004H 0012H
00:0008 01-F0'00-00'             1469   	bl	_main_clrWDT
                                 1470   
                                 1471   ;;			PFRUN = 0;
                                 1472   CLINEA 0000H 0001H 022BH 0004H 000DH
00:000C 82-A0 73-F9              1473   	rb	0f973h.0
                                 1474   
                                 1475   ;;			PCRUN = 0; 
                                 1476   CLINEA 0000H 0001H 022CH 0004H 000EH
00:0010 82-A0 17-F9              1477   	rb	0f917h.0
                                 1478   
                                 1479   ;;			PDRUN = 0;
                                 1480   CLINEA 0000H 0001H 022DH 0004H 000DH
00:0014 82-A0 27-F9              1481   	rb	0f927h.0
                                 1482   
                                 1483   ;;			PWF0D = i; 
                                 1484   CLINEA 0000H 0001H 022FH 0004H 000EH
00:0018 12-90 00-00'             1485   	l	er0,	NEAR _i
00:001C 13-90 62-F9              1486   	st	er0,	0f962h
                                 1487   
                                 1488   ;;			PWDD  = 0; 
                                 1489   CLINEA 0000H 0001H 0230H 0004H 000EH
00:0020 00 E0                    1490   	mov	er0,	#0 
00:0022 13-90 22-F9              1491   	st	er0,	0f922h
                                 1492   
                                 1493   ;;			PWCD =  0;
                                 1494   CLINEA 0000H 0001H 0231H 0004H 000DH
00:0026 13-90 12-F9              1495   	st	er0,	0f912h
                                 1496   
                                 1497   ;;			PFRUN = 1;    
                                 1498   CLINEA 0000H 0001H 0233H 0004H 0011H
00:002A 80-A0 73-F9              1499   	sb	0f973h.0
                                 1500   
                                 1501   ;;			PCRUN = 1;  
                                 1502   CLINEA 0000H 0001H 0234H 0004H 000FH
00:002E 80-A0 17-F9              1503   	sb	0f917h.0
                                 1504   
                                 1505   ;;			PDRUN = 1;
                                 1506   CLINEA 0000H 0001H 0235H 0004H 000DH
00:0032 80-A0 27-F9              1507   	sb	0f927h.0
                                 1508   
                                 1509   ;;			NOPms(3);  
                                 1510   CLINEA 0000H 0001H 0236H 0004H 000EH
00:0036 03 E0                    1511   	mov	er0,	#3 
00:0038 01-F0'00-00'             1512   	bl	_NOPms
                                 1513   CBLOCKEND 202 3 567
                                 1514   
                                 1515   ;;		for(i=0;i<256;i++){
                                 1516   CLINEA 0000H 0000H 0229H 0011H 0013H
00:003C 12-90 00-00'             1517   	l	er0,	NEAR _i
00:0040 81 E0                    1518   	add	er0,	#1 
00:0042 13-90 00-00'             1519   	st	er0,	NEAR _i
                                 1520   
                                 1521   ;;		for(i=0;i<256;i++){
                                 1522   CLINEA 0000H 0000H 0229H 000BH 0010H
00:0046 00 70                    1523   	cmp	r0,	#00h
00:0048 01 51                    1524   	cmpc	r1,	#01h
00:004A DE C1                    1525   	blt	_$L103
                                 1526   
                                 1527   ;;		for(i=0;i<256;i++){
                                 1528   CLINEA 0000H 0001H 0238H 0007H 000AH
00:004C 00 E0                    1529   	mov	er0,	#0 
00:004E 13-90 00-00'             1530   	st	er0,	NEAR _i
                                 1531   
                                 1532   ;;		for(i=0;i<256;i++){
                                 1533   CLINEA 0000H 0000H 0238H 0011H 0013H
00:0052                          1534   _$L109 :
                                 1535   CBLOCK 202 4 568
                                 1536   
                                 1537   ;;			main_clrWDT(); 
                                 1538   CLINEA 0000H 0001H 0239H 0004H 0012H
00:0052 01-F0'00-00'             1539   	bl	_main_clrWDT
                                 1540   
                                 1541   ;;			PFRUN = 0;
                                 1542   CLINEA 0000H 0001H 023AH 0004H 000DH
00:0056 82-A0 73-F9              1543   	rb	0f973h.0
                                 1544   
                                 1545   ;;			PCRUN = 0; 
                                 1546   CLINEA 0000H 0001H 023BH 0004H 000EH
00:005A 82-A0 17-F9              1547   	rb	0f917h.0
                                 1548   
                                 1549   ;;			PDRUN = 0;
                                 1550   CLINEA 0000H 0001H 023CH 0004H 000DH
00:005E 82-A0 27-F9              1551   	rb	0f927h.0
                                 1552   
                                 1553   ;;			PWF0D = 0; 
                                 1554   CLINEA 0000H 0001H 023EH 0004H 000EH
00:0062 00 E0                    1555   	mov	er0,	#0 
00:0064 13-90 62-F9              1556   	st	er0,	0f962h
                                 1557   
                                 1558   ;;			PWDD  = i; 
                                 1559   CLINEA 0000H 0001H 023FH 0004H 000EH
00:0068 12-90 00-00'             1560   	l	er0,	NEAR _i
00:006C 13-90 22-F9              1561   	st	er0,	0f922h
                                 1562   
                                 1563   ;;			PWCD =  0;
                                 1564   CLINEA 0000H 0001H 0240H 0004H 000DH
00:0070 00 E0                    1565   	mov	er0,	#0 
00:0072 13-90 12-F9              1566   	st	er0,	0f912h
                                 1567   
                                 1568   ;;			PFRUN = 1;    
                                 1569   CLINEA 0000H 0001H 0242H 0004H 0011H
00:0076 80-A0 73-F9              1570   	sb	0f973h.0
                                 1571   
                                 1572   ;;			PCRUN = 1;  
                                 1573   CLINEA 0000H 0001H 0243H 0004H 000FH
00:007A 80-A0 17-F9              1574   	sb	0f917h.0
                                 1575   
                                 1576   ;;			PDRUN = 1;
                                 1577   CLINEA 0000H 0001H 0244H 0004H 000DH
00:007E 80-A0 27-F9              1578   	sb	0f927h.0
                                 1579   
                                 1580   ;;			NOPms(3);  
                                 1581   CLINEA 0000H 0001H 0245H 0004H 000EH
00:0082 03 E0                    1582   	mov	er0,	#3 
00:0084 01-F0'00-00'             1583   	bl	_NOPms
                                 1584   CBLOCKEND 202 4 582
                                 1585   
                                 1586   ;;		for(i=0;i<256;i++){
                                 1587   CLINEA 0000H 0000H 0238H 0011H 0013H
00:0088 12-90 00-00'             1588   	l	er0,	NEAR _i
00:008C 81 E0                    1589   	add	er0,	#1 
00:008E 13-90 00-00'             1590   	st	er0,	NEAR _i
                                 1591   
                                 1592   ;;		for(i=0;i<256;i++){
                                 1593   CLINEA 0000H 0000H 0238H 000BH 0010H
00:0092 00 70                    1594   	cmp	r0,	#00h
00:0094 01 51                    1595   	cmpc	r1,	#01h
00:0096 DD C1                    1596   	blt	_$L109
                                 1597   
                                 1598   ;;		for(i=0;i<256;i++){
                                 1599   CLINEA 0000H 0001H 0247H 0007H 000AH
00:0098 00 E0                    1600   	mov	er0,	#0 
00:009A 13-90 00-00'             1601   	st	er0,	NEAR _i
                                 1602   
                                 1603   ;;		for(i=0;i<256;i++){
                                 1604   CLINEA 0000H 0000H 0247H 0011H 0013H
00:009E                          1605   _$L115 :
                                 1606   CBLOCK 202 5 583
                                 1607   
                                 1608   ;;			main_clrWDT(); 
                                 1609   CLINEA 0000H 0001H 0248H 0004H 0012H
00:009E 01-F0'00-00'             1610   	bl	_main_clrWDT
                                 1611   
                                 1612   ;;			PFRUN = 0;
                                 1613   CLINEA 0000H 0001H 0249H 0004H 000DH
00:00A2 82-A0 73-F9              1614   	rb	0f973h.0
                                 1615   
                                 1616   ;;			PCRUN = 0; 
                                 1617   CLINEA 0000H 0001H 024AH 0004H 000EH
00:00A6 82-A0 17-F9              1618   	rb	0f917h.0
                                 1619   
                                 1620   ;;			PDRUN = 0;
                                 1621   CLINEA 0000H 0001H 024BH 0004H 000DH
00:00AA 82-A0 27-F9              1622   	rb	0f927h.0
                                 1623   
                                 1624   ;;			PWF0D = 0; 
                                 1625   CLINEA 0000H 0001H 024DH 0004H 000EH
00:00AE 00 E0                    1626   	mov	er0,	#0 
00:00B0 13-90 62-F9              1627   	st	er0,	0f962h
                                 1628   
                                 1629   ;;			PWDD  = 0; 
                                 1630   CLINEA 0000H 0001H 024EH 0004H 000EH
00:00B4 13-90 22-F9              1631   	st	er0,	0f922h
                                 1632   
                                 1633   ;;			PWCD =  i;
                                 1634   CLINEA 0000H 0001H 024FH 0004H 000DH
00:00B8 12-90 00-00'             1635   	l	er0,	NEAR _i
00:00BC 13-90 12-F9              1636   	st	er0,	0f912h
                                 1637   
                                 1638   ;;			PFRUN = 1;    
                                 1639   CLINEA 0000H 0001H 0251H 0004H 0011H
00:00C0 80-A0 73-F9              1640   	sb	0f973h.0
                                 1641   
                                 1642   ;;			PCRUN = 1;  
                                 1643   CLINEA 0000H 0001H 0252H 0004H 000FH
00:00C4 80-A0 17-F9              1644   	sb	0f917h.0
                                 1645   
                                 1646   ;;			PDRUN = 1;
                                 1647   CLINEA 0000H 0001H 0253H 0004H 000DH
00:00C8 80-A0 27-F9              1648   	sb	0f927h.0
                                 1649   
                                 1650   ;;			NOPms(3);  
                                 1651   CLINEA 0000H 0001H 0254H 0004H 000EH
00:00CC 03 E0                    1652   	mov	er0,	#3 
00:00CE 01-F0'00-00'             1653   	bl	_NOPms
                                 1654   CBLOCKEND 202 5 597
                                 1655   
                                 1656   ;;		for(i=0;i<256;i++){
                                 1657   CLINEA 0000H 0000H 0247H 0011H 0013H
00:00D2 12-90 00-00'             1658   	l	er0,	NEAR _i
00:00D6 81 E0                    1659   	add	er0,	#1 
00:00D8 13-90 00-00'             1660   	st	er0,	NEAR _i
                                 1661   
                                 1662   ;;		for(i=0;i<256;i++){
                                 1663   CLINEA 0000H 0000H 0247H 000BH 0010H
00:00DC 00 70                    1664   	cmp	r0,	#00h
00:00DE 01 51                    1665   	cmpc	r1,	#01h
00:00E0 DE C1                    1666   	blt	_$L115
                                 1667   
                                 1668   ;;		i=k=0;
                                 1669   CLINEA 0000H 0001H 0256H 0003H 0008H
00:00E2 00 E0                    1670   	mov	er0,	#0 
00:00E4 13-90 00-00'             1671   	st	er0,	NEAR _k
00:00E8 13-90 00-00'             1672   	st	er0,	NEAR _i
                                 1673   
                                 1674   ;;		j=255;
                                 1675   CLINEA 0000H 0001H 0257H 0003H 0008H
00:00EC FF 00                    1676   	mov	r0,	#0ffh
00:00EE 13-90 00-00'             1677   	st	er0,	NEAR _j
                                 1678   
                                 1679   ;;		SET_RGB(i,j,k);
                                 1680   CLINEA 0000H 0001H 0258H 0003H 0011H
00:00F2 00 E0                    1681   	mov	er0,	#0 
00:00F4 5E-F0                    1682   	push	er0
00:00F6 FF 02                    1683   	mov	r2,	#0ffh
00:00F8 00 03                    1684   	mov	r3,	#00h
00:00FA 01-F0'00-00'             1685   	bl	_SET_RGB
00:00FE 02 E1                    1686   	add	sp,	#2 
                                 1687   CBLOCKEND 202 2 601
                                 1688   
                                 1689   ;;}
                                 1690   CLINEA 0000H 0001H 0259H 0001H 0001H
00:0100 8E-F2                    1691   	pop	pc
                                 1692   CBLOCKEND 202 1 601
                                 1693   CFUNCTIONEND 202
                                 1694   
                                 1695   
  --------------------------     1696   	rseg $$PWM_SET$main
                                 1697   CFUNCTION 198
                                 1698   
00:0000                          1699   _PWM_SET	:
                                 1700   CBLOCK 198 1 603
                                 1701   
                                 1702   ;;void PWM_SET(void){ 
                                 1703   CLINEA 0000H 0001H 025BH 0001H 0014H
00:0000 CE-F8                    1704   	push	lr
                                 1705   CBLOCK 198 2 603
                                 1706   CRET 0000H
                                 1707   
                                 1708   ;;			if(outputVal!= 0){
                                 1709   CLINEA 0000H 0001H 025CH 0004H 0015H
00:0002 12-90 00-00'             1710   	l	er0,	NEAR _outputVal
00:0006 12-92 00-00'             1711   	l	er2,	NEAR _outputVal+02h
00:000A 00 70                    1712   	cmp	r0,	#00h
00:000C 00 51                    1713   	cmpc	r1,	#00h
00:000E 00 52                    1714   	cmpc	r2,	#00h
00:0010 00 53                    1715   	cmpc	r3,	#00h
00:0012 0B C9                    1716   	beq	_$L120
                                 1717   CBLOCK 198 3 604
                                 1718   
                                 1719   ;;				main_clrWDT(); 
                                 1720   CLINEA 0000H 0001H 025DH 0005H 0013H
00:0014 01-F0'00-00'             1721   	bl	_main_clrWDT
                                 1722   
                                 1723   ;;				PERUN = 0; 
                                 1724   CLINEA 0000H 0001H 025EH 0005H 000FH
00:0018 82-A0 37-F9              1725   	rb	0f937h.0
                                 1726   
                                 1727   ;;				PWED  = outputVal;  
                                 1728   CLINEA 0000H 0001H 025FH 0005H 0018H
00:001C 12-90 00-00'             1729   	l	er0,	NEAR _outputVal
00:0020 13-90 32-F9              1730   	st	er0,	0f932h
                                 1731   
                                 1732   ;;				PERUN = 1; 
                                 1733   CLINEA 0000H 0001H 0260H 0005H 000FH
00:0024 80-A0 37-F9              1734   	sb	0f937h.0
                                 1735   CBLOCKEND 198 3 609
                                 1736   
                                 1737   ;;			}else{
                                 1738   CLINEA 0000H 0000H 0261H 0004H 0009H
00:0028 8E-F2                    1739   	pop	pc
00:002A                          1740   _$L120 :
                                 1741   CBLOCK 198 4 609
                                 1742   
                                 1743   ;;				PERUN = 0;
                                 1744   CLINEA 0000H 0001H 0262H 0005H 000EH
00:002A 82-A0 37-F9              1745   	rb	0f937h.0
                                 1746   CBLOCKEND 198 4 611
                                 1747   
                                 1748   ;;			}
                                 1749   CLINEA 0000H 0000H 0263H 0004H 0004H
                                 1750   CBLOCKEND 198 2 612
                                 1751   
                                 1752   ;;}
                                 1753   CLINEA 0000H 0001H 0264H 0001H 0001H
00:002E 8E-F2                    1754   	pop	pc
                                 1755   CBLOCKEND 198 1 612
                                 1756   CFUNCTIONEND 198
                                 1757   
                                 1758   
  --------------------------     1759   	rseg $$BLINK$main
                                 1760   CFUNCTION 197
                                 1761   
00:0000                          1762   _BLINK	:
                                 1763   CBLOCK 197 1 614
                                 1764   
                                 1765   ;;void BLINK(void){
                                 1766   CLINEA 0000H 0001H 0266H 0001H 0011H
00:0000 CE-F8                    1767   	push	lr
                                 1768   CBLOCK 197 2 614
                                 1769   CRET 0000H
                                 1770   
                                 1771   ;;	main_clrWDT();      
                                 1772   CLINEA 0000H 0001H 0267H 0002H 0015H
00:0002 01-F0'00-00'             1773   	bl	_main_clrWDT
                                 1774   
                                 1775   ;;	PB4D = 0;
                                 1776   CLINEA 0000H 0001H 0269H 0002H 000AH
00:0006 C2-A0 58-F2              1777   	rb	0f258h.4
                                 1778   
                                 1779   ;;	PA1D = 1;
                                 1780   CLINEA 0000H 0001H 026AH 0002H 000AH
00:000A 90-A0 50-F2              1781   	sb	0f250h.1
                                 1782   
                                 1783   ;;	PC2D = 1;
                                 1784   CLINEA 0000H 0001H 026BH 0002H 000AH
00:000E A0-A0 60-F2              1785   	sb	0f260h.2
                                 1786   
                                 1787   ;;	NOPms(20);
                                 1788   CLINEA 0000H 0001H 026CH 0002H 000BH
00:0012 14 E0                    1789   	mov	er0,	#20
00:0014 01-F0'00-00'             1790   	bl	_NOPms
                                 1791   
                                 1792   ;;	PB4D = 1;
                                 1793   CLINEA 0000H 0001H 026EH 0002H 000AH
00:0018 C0-A0 58-F2              1794   	sb	0f258h.4
                                 1795   
                                 1796   ;;	PA1D = 0;
                                 1797   CLINEA 0000H 0001H 026FH 0002H 000AH
00:001C 92-A0 50-F2              1798   	rb	0f250h.1
                                 1799   
                                 1800   ;;	PC2D = 1;
                                 1801   CLINEA 0000H 0001H 0270H 0002H 000AH
00:0020 A0-A0 60-F2              1802   	sb	0f260h.2
                                 1803   
                                 1804   ;;	NOPms(20);
                                 1805   CLINEA 0000H 0001H 0271H 0002H 000BH
00:0024 14 E0                    1806   	mov	er0,	#20
00:0026 01-F0'00-00'             1807   	bl	_NOPms
                                 1808   
                                 1809   ;;	PB4D = 1;
                                 1810   CLINEA 0000H 0001H 0273H 0002H 000AH
00:002A C0-A0 58-F2              1811   	sb	0f258h.4
                                 1812   
                                 1813   ;;	PA1D = 1;
                                 1814   CLINEA 0000H 0001H 0274H 0002H 000AH
00:002E 90-A0 50-F2              1815   	sb	0f250h.1
                                 1816   
                                 1817   ;;	PC2D = 0;
                                 1818   CLINEA 0000H 0001H 0275H 0002H 000AH
00:0032 A2-A0 60-F2              1819   	rb	0f260h.2
                                 1820   
                                 1821   ;;	NOPms(20);
                                 1822   CLINEA 0000H 0001H 0276H 0002H 000BH
00:0036 14 E0                    1823   	mov	er0,	#20
00:0038 01-F0'00-00'             1824   	bl	_NOPms
                                 1825   
                                 1826   ;;	PB4D = 1;
                                 1827   CLINEA 0000H 0001H 0278H 0002H 000AH
00:003C C0-A0 58-F2              1828   	sb	0f258h.4
                                 1829   
                                 1830   ;;	PA1D = 1;
                                 1831   CLINEA 0000H 0001H 0279H 0002H 000AH
00:0040 90-A0 50-F2              1832   	sb	0f250h.1
                                 1833   
                                 1834   ;;	PC2D = 1; 
                                 1835   CLINEA 0000H 0001H 027AH 0002H 000BH
00:0044 A0-A0 60-F2              1836   	sb	0f260h.2
                                 1837   CBLOCKEND 197 2 635
                                 1838   
                                 1839   ;;}
                                 1840   CLINEA 0000H 0001H 027BH 0001H 0001H
00:0048 8E-F2                    1841   	pop	pc
                                 1842   CBLOCKEND 197 1 635
                                 1843   CFUNCTIONEND 197
                                 1844   
                                 1845   
  --------------------------     1846   	rseg $$GetColorUART_Command$main
                                 1847   CFUNCTION 201
                                 1848   
00:0000                          1849   _GetColorUART_Command	:
                                 1850   CBLOCK 201 1 636
                                 1851   
                                 1852   ;;char GetColorUART_Command(void){
                                 1853   CLINEA 0000H 0001H 027CH 0001H 0020H
00:0000 CE-F8                    1854   	push	lr
00:0002 5E-F4                    1855   	push	er4
                                 1856   CBLOCK 201 2 636
                                 1857   CRET 0002H
                                 1858   
                                 1859   ;;		for(i=0;i<40;i++){
                                 1860   CLINEA 0000H 0001H 027DH 0007H 000AH
00:0004 00 E0                    1861   	mov	er0,	#0 
00:0006 13-90 00-00'             1862   	st	er0,	NEAR _i
                                 1863   
                                 1864   ;;		for(i=0;i<40;i++){
                                 1865   CLINEA 0000H 0000H 027DH 0010H 0012H
00:000A                          1866   _$L127 :
                                 1867   CBLOCK 201 3 637
                                 1868   
                                 1869   ;;			val[i] = 0;
                                 1870   CLINEA 0000H 0001H 027EH 0004H 000EH
00:000A 00 02                    1871   	mov	r2,	#00h
00:000C 09-92 00-00'             1872   	st	r2,	NEAR _val[er0]
                                 1873   CBLOCKEND 201 3 639
                                 1874   
                                 1875   ;;		for(i=0;i<40;i++){
                                 1876   CLINEA 0000H 0000H 027DH 0010H 0012H
00:0010 12-90 00-00'             1877   	l	er0,	NEAR _i
00:0014 81 E0                    1878   	add	er0,	#1 
00:0016 13-90 00-00'             1879   	st	er0,	NEAR _i
                                 1880   
                                 1881   ;;		for(i=0;i<40;i++){
                                 1882   CLINEA 0000H 0000H 027DH 000BH 000FH
00:001A 28 70                    1883   	cmp	r0,	#028h
00:001C 00 51                    1884   	cmpc	r1,	#00h
00:001E F5 C1                    1885   	blt	_$L127
                                 1886   
                                 1887   ;;		i =0;
                                 1888   CLINEA 0000H 0001H 0280H 0003H 0007H
00:0020 00 E0                    1889   	mov	er0,	#0 
00:0022 13-90 00-00'             1890   	st	er0,	NEAR _i
                                 1891   
                                 1892   ;;		main_clrWDT();    
                                 1893   CLINEA 0000H 0001H 0282H 0003H 0014H
00:0026 01-F0'00-00'             1894   	bl	_main_clrWDT
                                 1895   
                                 1896   ;;		_flgUartFin = 0;
                                 1897   CLINEA 0000H 0001H 0284H 0003H 0012H
00:002A 00 00                    1898   	mov	r0,	#00h
00:002C 11-90 00-00'             1899   	st	r0,	NEAR __flgUartFin
                                 1900   
                                 1901   ;;		uart_stop();
                                 1902   CLINEA 0000H 0001H 0285H 0003H 000EH
00:0030 01-F0'00-00'             1903   	bl	_uart_stop
                                 1904   
                                 1905   ;;		uart_startReceive(val, 25, _funcUartFin); 
                                 1906   CLINEA 0000H 0001H 0286H 0003H 002CH
00:0034 00'00                    1907   	mov	r0,	#BYTE1 OFFSET __funcUartFin
00:0036 00'01                    1908   	mov	r1,	#BYTE2 OFFSET __funcUartFin
00:0038 5E-F0                    1909   	push	er0
00:003A 19 E2                    1910   	mov	er2,	#25
00:003C 00'00                    1911   	mov	r0,	#BYTE1 OFFSET _val
00:003E 00'01                    1912   	mov	r1,	#BYTE2 OFFSET _val
00:0040 01-F0'00-00'             1913   	bl	_uart_startReceive
00:0044 02 E1                    1914   	add	sp,	#2 
                                 1915   
                                 1916   ;;			while(_flgUartFin != 1){ 
                                 1917   CLINEA 0000H 0000H 0288H 0001H 0001H
00:0046 02 CE                    1918   	bal	_$L167
                                 1919   
                                 1920   ;;			while(_flgUartFin != 1){ 
                                 1921   CLINEA 0000H 0000H 0288H 0004H 001CH
00:0048                          1922   _$L133 :
                                 1923   CBLOCK 201 4 648
                                 1924   
                                 1925   ;;				main_clrWDT();
                                 1926   CLINEA 0000H 0001H 0289H 0005H 0012H
00:0048 01-F0'00-00'             1927   	bl	_main_clrWDT
                                 1928   CBLOCKEND 201 4 650
                                 1929   
                                 1930   ;;			while(_flgUartFin != 1){ 
                                 1931   CLINEA 0000H 0000H 0288H 0001H 0001H
00:004C                          1932   _$L167 :
                                 1933   
                                 1934   ;;			while(_flgUartFin != 1){ 
                                 1935   CLINEA 0000H 0000H 0288H 000BH 000FH
00:004C 10-90 00-00'             1936   	l	r0,	NEAR __flgUartFin
00:0050 01 70                    1937   	cmp	r0,	#01h
00:0052 FA C8                    1938   	bne	_$L133
                                 1939   
                                 1940   ;;		val[40] = 0; // Null-Terminated String Set 
                                 1941   CLINEA 0000H 0001H 028CH 0003H 002DH
00:0054 00 00                    1942   	mov	r0,	#00h
00:0056 11-90 00-00'             1943   	st	r0,	NEAR _val+028h
                                 1944   
                                 1945   ;;		for(;i<40;i++){
                                 1946   CLINEA 0000H 0000H 028EH 0001H 0001H
00:005A 0D CE                    1947   	bal	_$L168
                                 1948   
                                 1949   ;;		for(;i<40;i++){
                                 1950   CLINEA 0000H 0000H 028EH 0003H 0011H
00:005C                          1951   _$L137 :
                                 1952   CBLOCK 201 5 654
                                 1953   
                                 1954   ;;			main_clrWDT();
                                 1955   CLINEA 0000H 0001H 028FH 0004H 0011H
00:005C 01-F0'00-00'             1956   	bl	_main_clrWDT
                                 1957   
                                 1958   ;;			if(val[i] == '*')
                                 1959   CLINEA 0000H 0001H 0290H 0004H 0014H
00:0060 12-90 00-00'             1960   	l	er0,	NEAR _i
00:0064 08-90 00-00'             1961   	l	r0,	NEAR _val[er0]
00:0068 2A 70                    1962   	cmp	r0,	#02ah
00:006A 18 C9                    1963   	beq	_$L169
                                 1964   
                                 1965   ;;				break;
                                 1966   CLINEA 0000H 0001H 0291H 0005H 000AH
                                 1967   CBLOCKEND 201 5 658
                                 1968   
                                 1969   ;;		for(;i<40;i++){
                                 1970   CLINEA 0000H 0000H 028EH 0003H 0011H
00:006C 12-90 00-00'             1971   	l	er0,	NEAR _i
00:0070 81 E0                    1972   	add	er0,	#1 
00:0072 13-90 00-00'             1973   	st	er0,	NEAR _i
                                 1974   
                                 1975   ;;		for(;i<40;i++){
                                 1976   CLINEA 0000H 0000H 028EH 0001H 0001H
00:0076                          1977   _$L168 :
                                 1978   
                                 1979   ;;		for(;i<40;i++){
                                 1980   CLINEA 0000H 0000H 028EH 0008H 000CH
00:0076 12-90 00-00'             1981   	l	er0,	NEAR _i
00:007A 28 70                    1982   	cmp	r0,	#028h
00:007C 00 51                    1983   	cmpc	r1,	#00h
00:007E EE C1                    1984   	blt	_$L137
                                 1985   
                                 1986   ;;		for(;i<40;i++){
                                 1987   CLINEA 0000H 0000H 0293H 0001H 0001H
00:0080 0D CE                    1988   	bal	_$L169
                                 1989   
                                 1990   ;;		for(;i<40;i++){
                                 1991   CLINEA 0000H 0000H 0293H 000DH 000FH
00:0082                          1992   _$L145 :
                                 1993   CBLOCK 201 6 659
                                 1994   
                                 1995   ;;			main_clrWDT();
                                 1996   CLINEA 0000H 0001H 0294H 0004H 0011H
00:0082 01-F0'00-00'             1997   	bl	_main_clrWDT
                                 1998   
                                 1999   ;;			if(val[i] == '.')
                                 2000   CLINEA 0000H 0001H 0295H 0004H 0014H
00:0086 12-90 00-00'             2001   	l	er0,	NEAR _i
00:008A 08-90 00-00'             2002   	l	r0,	NEAR _val[er0]
00:008E 2E 70                    2003   	cmp	r0,	#02eh
00:0090 0A C9                    2004   	beq	_$L144
                                 2005   
                                 2006   ;;				break;
                                 2007   CLINEA 0000H 0001H 0296H 0005H 000AH
                                 2008   CBLOCKEND 201 6 663
                                 2009   
                                 2010   ;;		for(;i<40;i++){
                                 2011   CLINEA 0000H 0000H 0293H 000DH 000FH
00:0092 12-90 00-00'             2012   	l	er0,	NEAR _i
00:0096 81 E0                    2013   	add	er0,	#1 
00:0098 13-90 00-00'             2014   	st	er0,	NEAR _i
                                 2015   
                                 2016   ;;		for(;i<40;i++){
                                 2017   CLINEA 0000H 0000H 0293H 0001H 0001H
00:009C                          2018   _$L169 :
                                 2019   
                                 2020   ;;		for(;i<40;i++){
                                 2021   CLINEA 0000H 0000H 0293H 0008H 000CH
00:009C 12-90 00-00'             2022   	l	er0,	NEAR _i
00:00A0 28 70                    2023   	cmp	r0,	#028h
00:00A2 00 51                    2024   	cmpc	r1,	#00h
00:00A4 EE C1                    2025   	blt	_$L145
                                 2026   
                                 2027   ;;		} 
                                 2028   CLINEA 0000H 0000H 0297H 0003H 0004H
00:00A6                          2029   _$L144 :
                                 2030   
                                 2031   ;;		R_Value = (val[++i]-48)*100 + (val[++i]-48)*10 + (val[++i]-48);
                                 2032   CLINEA 0000H 0000H 0298H 0003H 0041H
00:00A6 12-90 00-00'             2033   	l	er0,	NEAR _i
00:00AA 81 E0                    2034   	add	er0,	#1 
00:00AC 13-90 00-00'             2035   	st	er0,	NEAR _i
00:00B0 08-90 00-00'             2036   	l	r0,	NEAR _val[er0]
00:00B4 00 01                    2037   	mov	r1,	#00h
00:00B6 D0 E0                    2038   	add	er0,	#-48
00:00B8 05-F2                    2039   	mov	er2,	er0
00:00BA 06-F2                    2040   	add	er2,	er0
00:00BC 06-F2                    2041   	add	er2,	er0
00:00BE 3B-93                    2042   	sllc	r3,	#03h
00:00C0 3A-92                    2043   	sll	r2,	#03h
00:00C2 06-F2                    2044   	add	er2,	er0
00:00C4 2B-93                    2045   	sllc	r3,	#02h
00:00C6 2A-92                    2046   	sll	r2,	#02h
00:00C8 25-F4                    2047   	mov	er4,	er2
00:00CA 12-90 00-00'             2048   	l	er0,	NEAR _i
00:00CE 81 E0                    2049   	add	er0,	#1 
00:00D0 13-90 00-00'             2050   	st	er0,	NEAR _i
00:00D4 08-90 00-00'             2051   	l	r0,	NEAR _val[er0]
00:00D8 00 01                    2052   	mov	r1,	#00h
00:00DA D0 E0                    2053   	add	er0,	#-48
00:00DC 05-F2                    2054   	mov	er2,	er0
00:00DE 2B-93                    2055   	sllc	r3,	#02h
00:00E0 2A-92                    2056   	sll	r2,	#02h
00:00E2 06-F2                    2057   	add	er2,	er0
00:00E4 26-F2                    2058   	add	er2,	er2
00:00E6 25-F0                    2059   	mov	er0,	er2
00:00E8 46-F0                    2060   	add	er0,	er4
00:00EA 05-F2                    2061   	mov	er2,	er0
00:00EC 12-90 00-00'             2062   	l	er0,	NEAR _i
00:00F0 81 E0                    2063   	add	er0,	#1 
00:00F2 13-90 00-00'             2064   	st	er0,	NEAR _i
00:00F6 08-90 00-00'             2065   	l	r0,	NEAR _val[er0]
00:00FA 00 01                    2066   	mov	r1,	#00h
00:00FC 26-F0                    2067   	add	er0,	er2
00:00FE D0 E0                    2068   	add	er0,	#-48
00:0100 10-82                    2069   	mov	r2,	r1
00:0102 2F-83                    2070   	extbw	er2
00:0104 30-82                    2071   	mov	r2,	r3
00:0106 13-90 00-00'             2072   	st	er0,	NEAR _R_Value
00:010A 13-92 00-00'             2073   	st	er2,	NEAR _R_Value+02h
                                 2074   
                                 2075   ;;		for(;i<40;i++){
                                 2076   CLINEA 0000H 0000H 0299H 0001H 0001H
00:010E 0D CE                    2077   	bal	_$L170
                                 2078   
                                 2079   ;;		for(;i<40;i++){
                                 2080   CLINEA 0000H 0000H 0299H 0003H 0011H
00:0110                          2081   _$L153 :
                                 2082   CBLOCK 201 7 665
                                 2083   
                                 2084   ;;			main_clrWDT();
                                 2085   CLINEA 0000H 0001H 029AH 0004H 0011H
00:0110 01-F0'00-00'             2086   	bl	_main_clrWDT
                                 2087   
                                 2088   ;;			if(val[i] == '.')
                                 2089   CLINEA 0000H 0001H 029BH 0004H 0014H
00:0114 12-90 00-00'             2090   	l	er0,	NEAR _i
00:0118 08-90 00-00'             2091   	l	r0,	NEAR _val[er0]
00:011C 2E 70                    2092   	cmp	r0,	#02eh
00:011E 0A C9                    2093   	beq	_$L152
                                 2094   
                                 2095   ;;				break;
                                 2096   CLINEA 0000H 0001H 029CH 0005H 000AH
                                 2097   CBLOCKEND 201 7 669
                                 2098   
                                 2099   ;;		for(;i<40;i++){
                                 2100   CLINEA 0000H 0000H 0299H 0003H 0011H
00:0120 12-90 00-00'             2101   	l	er0,	NEAR _i
00:0124 81 E0                    2102   	add	er0,	#1 
00:0126 13-90 00-00'             2103   	st	er0,	NEAR _i
                                 2104   
                                 2105   ;;		for(;i<40;i++){
                                 2106   CLINEA 0000H 0000H 0299H 0001H 0001H
00:012A                          2107   _$L170 :
                                 2108   
                                 2109   ;;		for(;i<40;i++){
                                 2110   CLINEA 0000H 0000H 0299H 0008H 000CH
00:012A 12-90 00-00'             2111   	l	er0,	NEAR _i
00:012E 28 70                    2112   	cmp	r0,	#028h
00:0130 00 51                    2113   	cmpc	r1,	#00h
00:0132 EE C1                    2114   	blt	_$L153
                                 2115   
                                 2116   ;;		} 
                                 2117   CLINEA 0000H 0000H 029DH 0003H 0004H
00:0134                          2118   _$L152 :
                                 2119   
                                 2120   ;;		G_Value = (val[++i]-48)*100 + (val[++i]-48)*10 + (val[++i]-48);
                                 2121   CLINEA 0000H 0000H 029EH 0003H 0041H
00:0134 12-90 00-00'             2122   	l	er0,	NEAR _i
00:0138 81 E0                    2123   	add	er0,	#1 
00:013A 13-90 00-00'             2124   	st	er0,	NEAR _i
00:013E 08-90 00-00'             2125   	l	r0,	NEAR _val[er0]
00:0142 00 01                    2126   	mov	r1,	#00h
00:0144 D0 E0                    2127   	add	er0,	#-48
00:0146 05-F2                    2128   	mov	er2,	er0
00:0148 06-F2                    2129   	add	er2,	er0
00:014A 06-F2                    2130   	add	er2,	er0
00:014C 3B-93                    2131   	sllc	r3,	#03h
00:014E 3A-92                    2132   	sll	r2,	#03h
00:0150 06-F2                    2133   	add	er2,	er0
00:0152 2B-93                    2134   	sllc	r3,	#02h
00:0154 2A-92                    2135   	sll	r2,	#02h
00:0156 25-F4                    2136   	mov	er4,	er2
00:0158 12-90 00-00'             2137   	l	er0,	NEAR _i
00:015C 81 E0                    2138   	add	er0,	#1 
00:015E 13-90 00-00'             2139   	st	er0,	NEAR _i
00:0162 08-90 00-00'             2140   	l	r0,	NEAR _val[er0]
00:0166 00 01                    2141   	mov	r1,	#00h
00:0168 D0 E0                    2142   	add	er0,	#-48
00:016A 05-F2                    2143   	mov	er2,	er0
00:016C 2B-93                    2144   	sllc	r3,	#02h
00:016E 2A-92                    2145   	sll	r2,	#02h
00:0170 06-F2                    2146   	add	er2,	er0
00:0172 26-F2                    2147   	add	er2,	er2
00:0174 25-F0                    2148   	mov	er0,	er2
00:0176 46-F0                    2149   	add	er0,	er4
00:0178 05-F2                    2150   	mov	er2,	er0
00:017A 12-90 00-00'             2151   	l	er0,	NEAR _i
00:017E 81 E0                    2152   	add	er0,	#1 
00:0180 13-90 00-00'             2153   	st	er0,	NEAR _i
00:0184 08-90 00-00'             2154   	l	r0,	NEAR _val[er0]
00:0188 00 01                    2155   	mov	r1,	#00h
00:018A 26-F0                    2156   	add	er0,	er2
00:018C D0 E0                    2157   	add	er0,	#-48
00:018E 10-82                    2158   	mov	r2,	r1
00:0190 2F-83                    2159   	extbw	er2
00:0192 30-82                    2160   	mov	r2,	r3
00:0194 13-90 00-00'             2161   	st	er0,	NEAR _G_Value
00:0198 13-92 00-00'             2162   	st	er2,	NEAR _G_Value+02h
                                 2163   
                                 2164   ;;		for(;i<40;i++){
                                 2165   CLINEA 0000H 0000H 029FH 0001H 0001H
00:019C 0D CE                    2166   	bal	_$L171
                                 2167   
                                 2168   ;;		for(;i<40;i++){
                                 2169   CLINEA 0000H 0000H 029FH 0003H 0011H
00:019E                          2170   _$L161 :
                                 2171   CBLOCK 201 8 671
                                 2172   
                                 2173   ;;			main_clrWDT();
                                 2174   CLINEA 0000H 0001H 02A0H 0004H 0011H
00:019E 01-F0'00-00'             2175   	bl	_main_clrWDT
                                 2176   
                                 2177   ;;			if(val[i] == '.')
                                 2178   CLINEA 0000H 0001H 02A1H 0004H 0014H
00:01A2 12-90 00-00'             2179   	l	er0,	NEAR _i
00:01A6 08-90 00-00'             2180   	l	r0,	NEAR _val[er0]
00:01AA 2E 70                    2181   	cmp	r0,	#02eh
00:01AC 0A C9                    2182   	beq	_$L160
                                 2183   
                                 2184   ;;				break;
                                 2185   CLINEA 0000H 0001H 02A2H 0005H 000AH
                                 2186   CBLOCKEND 201 8 675
                                 2187   
                                 2188   ;;		for(;i<40;i++){
                                 2189   CLINEA 0000H 0000H 029FH 0003H 0011H
00:01AE 12-90 00-00'             2190   	l	er0,	NEAR _i
00:01B2 81 E0                    2191   	add	er0,	#1 
00:01B4 13-90 00-00'             2192   	st	er0,	NEAR _i
                                 2193   
                                 2194   ;;		for(;i<40;i++){
                                 2195   CLINEA 0000H 0000H 029FH 0001H 0001H
00:01B8                          2196   _$L171 :
                                 2197   
                                 2198   ;;		for(;i<40;i++){
                                 2199   CLINEA 0000H 0000H 029FH 0008H 000CH
00:01B8 12-90 00-00'             2200   	l	er0,	NEAR _i
00:01BC 28 70                    2201   	cmp	r0,	#028h
00:01BE 00 51                    2202   	cmpc	r1,	#00h
00:01C0 EE C1                    2203   	blt	_$L161
                                 2204   
                                 2205   ;;		} 
                                 2206   CLINEA 0000H 0000H 02A3H 0003H 0004H
00:01C2                          2207   _$L160 :
                                 2208   
                                 2209   ;;		B_Value = (val[++i]-48)*100 + (val[++i]-48)*10 + (val[++i]-48);
                                 2210   CLINEA 0000H 0000H 02A4H 0003H 0041H
00:01C2 12-90 00-00'             2211   	l	er0,	NEAR _i
00:01C6 81 E0                    2212   	add	er0,	#1 
00:01C8 13-90 00-00'             2213   	st	er0,	NEAR _i
00:01CC 08-90 00-00'             2214   	l	r0,	NEAR _val[er0]
00:01D0 00 01                    2215   	mov	r1,	#00h
00:01D2 D0 E0                    2216   	add	er0,	#-48
00:01D4 05-F2                    2217   	mov	er2,	er0
00:01D6 06-F2                    2218   	add	er2,	er0
00:01D8 06-F2                    2219   	add	er2,	er0
00:01DA 3B-93                    2220   	sllc	r3,	#03h
00:01DC 3A-92                    2221   	sll	r2,	#03h
00:01DE 06-F2                    2222   	add	er2,	er0
00:01E0 2B-93                    2223   	sllc	r3,	#02h
00:01E2 2A-92                    2224   	sll	r2,	#02h
00:01E4 25-F4                    2225   	mov	er4,	er2
00:01E6 12-90 00-00'             2226   	l	er0,	NEAR _i
00:01EA 81 E0                    2227   	add	er0,	#1 
00:01EC 13-90 00-00'             2228   	st	er0,	NEAR _i
00:01F0 08-90 00-00'             2229   	l	r0,	NEAR _val[er0]
00:01F4 00 01                    2230   	mov	r1,	#00h
00:01F6 D0 E0                    2231   	add	er0,	#-48
00:01F8 05-F2                    2232   	mov	er2,	er0
00:01FA 2B-93                    2233   	sllc	r3,	#02h
00:01FC 2A-92                    2234   	sll	r2,	#02h
00:01FE 06-F2                    2235   	add	er2,	er0
00:0200 26-F2                    2236   	add	er2,	er2
00:0202 25-F0                    2237   	mov	er0,	er2
00:0204 46-F0                    2238   	add	er0,	er4
00:0206 05-F2                    2239   	mov	er2,	er0
00:0208 12-90 00-00'             2240   	l	er0,	NEAR _i
00:020C 81 E0                    2241   	add	er0,	#1 
00:020E 13-90 00-00'             2242   	st	er0,	NEAR _i
00:0212 08-90 00-00'             2243   	l	r0,	NEAR _val[er0]
00:0216 00 01                    2244   	mov	r1,	#00h
00:0218 26-F0                    2245   	add	er0,	er2
00:021A D0 E0                    2246   	add	er0,	#-48
00:021C 10-82                    2247   	mov	r2,	r1
00:021E 2F-83                    2248   	extbw	er2
00:0220 30-82                    2249   	mov	r2,	r3
00:0222 13-90 00-00'             2250   	st	er0,	NEAR _B_Value
00:0226 13-92 00-00'             2251   	st	er2,	NEAR _B_Value+02h
                                 2252   
                                 2253   ;;		temp = 0;
                                 2254   CLINEA 0000H 0001H 02A6H 0003H 000BH
00:022A 00 00                    2255   	mov	r0,	#00h
00:022C 11-90 00-00'             2256   	st	r0,	NEAR _temp
                                 2257   CBLOCKEND 201 2 679
                                 2258   
                                 2259   ;;}
                                 2260   CLINEA 0000H 0001H 02A7H 0001H 0001H
00:0230 1E-F4                    2261   	pop	er4
00:0232 8E-F2                    2262   	pop	pc
                                 2263   CBLOCKEND 201 1 679
                                 2264   CFUNCTIONEND 201
                                 2265   
                                 2266   
  --------------------------     2267   	rseg $$GetUART_Command$main
                                 2268   CFUNCTION 199
                                 2269   
00:0000                          2270   _GetUART_Command	:
                                 2271   CBLOCK 199 1 681
                                 2272   
                                 2273   ;;void GetUART_Command(void){   
                                 2274   CLINEA 0000H 0001H 02A9H 0001H 001EH
00:0000 CE-F8                    2275   	push	lr
                                 2276   CBLOCK 199 2 681
                                 2277   CRET 0000H
                                 2278   
                                 2279   ;;		main_clrWDT();    
                                 2280   CLINEA 0000H 0001H 02ABH 0003H 0014H
00:0002 01-F0'00-00'             2281   	bl	_main_clrWDT
                                 2282   
                                 2283   ;;		_flgUartFin = 0;
                                 2284   CLINEA 0000H 0001H 02ADH 0003H 0012H
00:0006 00 00                    2285   	mov	r0,	#00h
00:0008 11-90 00-00'             2286   	st	r0,	NEAR __flgUartFin
                                 2287   
                                 2288   ;;		uart_stop();
                                 2289   CLINEA 0000H 0001H 02AEH 0003H 000EH
00:000C 01-F0'00-00'             2290   	bl	_uart_stop
                                 2291   
                                 2292   ;;		uart_startReceive(commandVal, 3, _funcUartFin);  
                                 2293   CLINEA 0000H 0001H 02AFH 0003H 0033H
00:0010 00'00                    2294   	mov	r0,	#BYTE1 OFFSET __funcUartFin
00:0012 00'01                    2295   	mov	r1,	#BYTE2 OFFSET __funcUartFin
00:0014 5E-F0                    2296   	push	er0
00:0016 03 E2                    2297   	mov	er2,	#3 
00:0018 00'00                    2298   	mov	r0,	#BYTE1 OFFSET _commandVal
00:001A 00'01                    2299   	mov	r1,	#BYTE2 OFFSET _commandVal
00:001C 01-F0'00-00'             2300   	bl	_uart_startReceive
00:0020 02 E1                    2301   	add	sp,	#2 
                                 2302   
                                 2303   ;;		while(_flgUartFin != 1){ 
                                 2304   CLINEA 0000H 0000H 02B2H 0001H 0001H
00:0022 0F CE                    2305   	bal	_$L177
                                 2306   
                                 2307   ;;		while(_flgUartFin != 1){ 
                                 2308   CLINEA 0000H 0000H 02B2H 0003H 001BH
00:0024                          2309   _$L175 :
                                 2310   CBLOCK 199 3 690
                                 2311   
                                 2312   ;;			main_clrWDT(); 
                                 2313   CLINEA 0000H 0001H 02B3H 0004H 0012H
00:0024 01-F0'00-00'             2314   	bl	_main_clrWDT
                                 2315   
                                 2316   ;;			I2C_Read(0x38u, &Prox_PS_LSB, 1, uniRawSensorOut._ucharArr, 1);
                                 2317   CLINEA 0000H 0001H 02B4H 0004H 0042H
00:0028 01 00                    2318   	mov	r0,	#01h
00:002A 4E-F0                    2319   	push	r0
00:002C 00'00                    2320   	mov	r0,	#BYTE1 OFFSET _uniRawSensorOut
00:002E 00'01                    2321   	mov	r1,	#BYTE2 OFFSET _uniRawSensorOut
00:0030 5E-F0                    2322   	push	er0
00:0032 01 00                    2323   	mov	r0,	#01h
00:0034 4E-F0                    2324   	push	r0
00:0036 00'02                    2325   	mov	r2,	#BYTE1 OFFSET _Prox_PS_LSB
00:0038 00'03                    2326   	mov	r3,	#BYTE2 OFFSET _Prox_PS_LSB
00:003A 38 00                    2327   	mov	r0,	#038h
00:003C 01-F0'00-00'             2328   	bl	_I2C_Read
00:0040 06 E1                    2329   	add	sp,	#6 
                                 2330   CBLOCKEND 199 3 734
                                 2331   
                                 2332   ;;		while(_flgUartFin != 1){ 
                                 2333   CLINEA 0000H 0000H 02B2H 0001H 0001H
00:0042                          2334   _$L177 :
                                 2335   
                                 2336   ;;		while(_flgUartFin != 1){ 
                                 2337   CLINEA 0000H 0000H 02B2H 0008H 000CH
00:0042 10-90 00-00'             2338   	l	r0,	NEAR __flgUartFin
00:0046 01 70                    2339   	cmp	r0,	#01h
00:0048 ED C8                    2340   	bne	_$L175
                                 2341   CBLOCKEND 199 2 736
                                 2342   
                                 2343   ;;}
                                 2344   CLINEA 0000H 0001H 02E0H 0001H 0001H
00:004A 8E-F2                    2345   	pop	pc
                                 2346   CBLOCKEND 199 1 736
                                 2347   CFUNCTIONEND 199
                                 2348   
                                 2349   
  --------------------------     2350   	rseg $$main_clrWDT$main
                                 2351   CFUNCTION 177
                                 2352   
00:0000                          2353   _main_clrWDT	:
                                 2354   CBLOCK 177 1 762
                                 2355   
                                 2356   ;;{
                                 2357   CLINEA 0000H 0001H 02FAH 0001H 0001H
                                 2358   CBLOCK 177 2 762
                                 2359   
                                 2360   ;;	do {
                                 2361   CLINEA 0000H 0001H 02FBH 0002H 0005H
00:0000                          2362   _$L181 :
                                 2363   CBLOCK 177 3 763
                                 2364   
                                 2365   ;;		WDTCON = 0x5Au;
                                 2366   CLINEA 0000H 0001H 02FCH 0003H 0011H
00:0000 5A 00                    2367   	mov	r0,	#05ah
00:0002 11-90 0E-F0              2368   	st	r0,	0f00eh
                                 2369   CBLOCKEND 177 3 765
                                 2370   
                                 2371   ;;	} while (WDP != 1);
                                 2372   CLINEA 0000H 0000H 02FDH 0002H 0014H
00:0006 81-A0 0E-F0              2373   	tb	0f00eh.0
00:000A FA C9                    2374   	beq	_$L181
                                 2375   
                                 2376   ;;	WDTCON = 0xA5u;
                                 2377   CLINEA 0000H 0001H 02FEH 0002H 0010H
00:000C A5 00                    2378   	mov	r0,	#0a5h
00:000E 11-90 0E-F0              2379   	st	r0,	0f00eh
                                 2380   CBLOCKEND 177 2 767
                                 2381   
                                 2382   ;;}
                                 2383   CLINEA 0000H 0001H 02FFH 0001H 0001H
00:0012 1F-FE                    2384   	rt
                                 2385   CBLOCKEND 177 1 767
                                 2386   CFUNCTIONEND 177
                                 2387   
                                 2388   
  --------------------------     2389   	rseg $$NOP1000$main
                                 2390   CFUNCTION 194
                                 2391   
00:0000                          2392   _NOP1000	:
                                 2393   CBLOCK 194 1 777
                                 2394   
                                 2395   ;;{
                                 2396   CLINEA 0000H 0001H 0309H 0001H 0001H
                                 2397   CBLOCK 194 2 777
                                 2398   CLOCAL 4AH 0002H 0000H 0002H "ONCNT" 02H 00H 01H
                                 2399   CBLOCKEND 194 2 784
                                 2400   
                                 2401   ;;}
                                 2402   CLINEA 0000H 0001H 0310H 0001H 0001H
00:0000 1F-FE                    2403   	rt
                                 2404   CBLOCKEND 194 1 784
                                 2405   CFUNCTIONEND 194
                                 2406   
                                 2407   
  --------------------------     2408   	rseg $$NOPms$main
                                 2409   CFUNCTION 195
                                 2410   
00:0000                          2411   _NOPms	:
                                 2412   CBLOCK 195 1 800
                                 2413   
                                 2414   ;;{
                                 2415   CLINEA 0000H 0001H 0320H 0001H 0001H
00:0000 CE-F8                    2416   	push	lr
00:0002 6E-F4                    2417   	push	xr4
00:0004 5E-FC                    2418   	push	bp
00:0006 5E-F8                    2419   	push	er8
00:0008 05-F8                    2420   	mov	er8,	er0
                                 2421   CBLOCK 195 2 800
                                 2422   CRET 0008H
                                 2423   CARGUMENT 46H 0002H 0028H "ms" 02H 00H 01H
                                 2424   CLOCAL 46H 0002H 002AH 0002H "timerThres" 02H 00H 01H
                                 2425   CLOCAL 46H 0001H 001AH 0002H "TimeFlag" 02H 00H 00H
                                 2426   CLOCAL 46H 0002H 0026H 0002H "TempSec" 02H 00H 01H
                                 2427   CLOCAL 46H 0002H 0024H 0002H "timer" 02H 00H 01H
                                 2428   CLOCAL 4AH 0002H 0000H 0002H "timertest" 02H 00H 01H
                                 2429   
                                 2430   ;;	TempSec = ms;
                                 2431   CLINEA 0000H 0001H 0327H 0002H 000EH
00:000A 05-F4                    2432   	mov	er4,	er0
                                 2433   
                                 2434   ;;	TimeFlag = 0;
                                 2435   CLINEA 0000H 0001H 0328H 0002H 000EH
00:000C 00 06                    2436   	mov	r6,	#00h
                                 2437   
                                 2438   ;;	tm_init(TM_CH_NO_AB);
                                 2439   CLINEA 0000H 0001H 032AH 0002H 0016H
00:000E 01 00                    2440   	mov	r0,	#01h
00:0010 01-F0'00-00'             2441   	bl	_tm_init
                                 2442   
                                 2443   ;;	tm_setABSource(TM_CS_HTBCLK);
                                 2444   CLINEA 0000H 0000H 018BH 0002H 0015H
00:0014 80-A0 EA-F8              2445   	sb	0f8eah.0
                                 2446   
                                 2447   ;;	tm_setABSource(TM_CS_HTBCLK);
                                 2448   CLINEA 0000H 0000H 018CH 0002H 001AH
00:0018 92-A0 EA-F8              2449   	rb	0f8eah.1
                                 2450   
                                 2451   ;;	tm_setABData(0xffff);
                                 2452   CLINEA 0000H 0000H 0155H 0002H 0025H
00:001C FF 00                    2453   	mov	r0,	#0ffh
00:001E 11-90 E8-F8              2454   	st	r0,	0f8e8h
                                 2455   
                                 2456   ;;	tm_setABData(0xffff);
                                 2457   CLINEA 0000H 0000H 0156H 0002H 0023H
00:0022 11-90 EC-F8              2458   	st	r0,	0f8ech
                                 2459   
                                 2460   ;;	if(ms < 128){
                                 2461   CLINEA 0000H 0001H 032EH 0002H 000EH
00:0026 85-F0                    2462   	mov	er0,	er8
00:0028 80 78                    2463   	cmp	r8,	#080h
00:002A 00 59                    2464   	cmpc	r9,	#00h
00:002C 07 C0                    2465   	bge	_$L189
                                 2466   CBLOCK 195 3 814
                                 2467   
                                 2468   ;;		timerThres = 0x1FF * ms;
                                 2469   CLINEA 0000H 0001H 032FH 0003H 001AH
00:002E 7B-91                    2470   	sllc	r1,	#07h
00:0030 7A-90                    2471   	sll	r0,	#07h
00:0032 2B-91                    2472   	sllc	r1,	#02h
00:0034 2A-90                    2473   	sll	r0,	#02h
00:0036 88-80                    2474   	sub	r0,	r8
00:0038 99-81                    2475   	subc	r1,	r9
00:003A 05-FC                    2476   	mov	bp,	er0
                                 2477   
                                 2478   ;;		TimeFlag = 0;
                                 2479   CLINEA 0000H 0001H 0330H 0003H 000FH
                                 2480   CBLOCKEND 195 3 817
                                 2481   
                                 2482   ;;	}
                                 2483   CLINEA 0000H 0000H 0331H 0002H 0002H
00:003C                          2484   _$L189 :
                                 2485   
                                 2486   ;;	if(ms == 128){
                                 2487   CLINEA 0000H 0001H 0332H 0002H 000FH
00:003C 80 78                    2488   	cmp	r8,	#080h
00:003E 00 59                    2489   	cmpc	r9,	#00h
00:0040 02 C8                    2490   	bne	_$L191
                                 2491   CBLOCK 195 4 818
                                 2492   
                                 2493   ;;		timerThres = 0xFFFF;
                                 2494   CLINEA 0000H 0001H 0333H 0003H 0016H
00:0042 7F EC                    2495   	mov	bp,	#-1
                                 2496   
                                 2497   ;;		TimeFlag = 0;
                                 2498   CLINEA 0000H 0001H 0334H 0003H 000FH
00:0044 00 06                    2499   	mov	r6,	#00h
                                 2500   CBLOCKEND 195 4 821
                                 2501   
                                 2502   ;;	}
                                 2503   CLINEA 0000H 0000H 0335H 0002H 0002H
00:0046                          2504   _$L191 :
                                 2505   
                                 2506   ;;	if(ms > 128){
                                 2507   CLINEA 0000H 0001H 0336H 0002H 000EH
00:0046 80 78                    2508   	cmp	r8,	#080h
00:0048 00 59                    2509   	cmpc	r9,	#00h
00:004A 15 C3                    2510   	ble	_$L201
                                 2511   CBLOCK 195 5 822
                                 2512   
                                 2513   ;;		while(TempSec > 128){
                                 2514   CLINEA 0000H 0000H 0337H 0001H 0001H
00:004C 04 CE                    2515   	bal	_$L211
                                 2516   
                                 2517   ;;		while(TempSec > 128){
                                 2518   CLINEA 0000H 0000H 0337H 0003H 0017H
00:004E                          2519   _$L197 :
                                 2520   CBLOCK 195 6 823
                                 2521   
                                 2522   ;;			TempSec -= 128;
                                 2523   CLINEA 0000H 0001H 0338H 0004H 0012H
00:004E 80 10                    2524   	add	r0,	#080h
00:0050 FF 61                    2525   	addc	r1,	#0ffh
00:0052 05-F4                    2526   	mov	er4,	er0
                                 2527   
                                 2528   ;;			TimeFlag++;
                                 2529   CLINEA 0000H 0000H 0339H 0004H 000EH
00:0054 01 16                    2530   	add	r6,	#01h
                                 2531   CBLOCKEND 195 6 826
                                 2532   
                                 2533   ;;		while(TempSec > 128){
                                 2534   CLINEA 0000H 0000H 0337H 0001H 0001H
00:0056                          2535   _$L211 :
                                 2536   
                                 2537   ;;		while(TempSec > 128){
                                 2538   CLINEA 0000H 0000H 0337H 0008H 000CH
00:0056 45-F0                    2539   	mov	er0,	er4
00:0058 80 74                    2540   	cmp	r4,	#080h
00:005A 00 55                    2541   	cmpc	r5,	#00h
00:005C F8 C2                    2542   	bgt	_$L197
                                 2543   
                                 2544   ;;		if(TempSec != 0){
                                 2545   CLINEA 0000H 0001H 033BH 0003H 0013H
00:005E 45-F4                    2546   	mov	er4,	er4
00:0060 08 C9                    2547   	beq	_$L199
                                 2548   CBLOCK 195 7 827
                                 2549   
                                 2550   ;;			timerThres = 0x1FF * TempSec;
                                 2551   CLINEA 0000H 0001H 033CH 0004H 0020H
00:0062 7B-91                    2552   	sllc	r1,	#07h
00:0064 7A-90                    2553   	sll	r0,	#07h
00:0066 2B-91                    2554   	sllc	r1,	#02h
00:0068 2A-90                    2555   	sll	r0,	#02h
00:006A 48-80                    2556   	sub	r0,	r4
00:006C 59-81                    2557   	subc	r1,	r5
00:006E 05-FC                    2558   	mov	bp,	er0
                                 2559   CBLOCKEND 195 7 829
                                 2560   
                                 2561   ;;		else{
                                 2562   CLINEA 0000H 0001H 033EH 0003H 0007H
00:0070 02 CE                    2563   	bal	_$L201
00:0072                          2564   _$L199 :
                                 2565   CBLOCK 195 8 830
                                 2566   
                                 2567   ;;			timerThres = 0xFFFF;
                                 2568   CLINEA 0000H 0001H 033FH 0004H 0017H
00:0072 7F EC                    2569   	mov	bp,	#-1
                                 2570   
                                 2571   ;;			TimeFlag--;
                                 2572   CLINEA 0000H 0000H 0340H 0004H 000EH
00:0074 FF 16                    2573   	add	r6,	#0ffh
                                 2574   CBLOCKEND 195 8 833
                                 2575   
                                 2576   ;;		}
                                 2577   CLINEA 0000H 0000H 0341H 0003H 0003H
00:0076                          2578   _$L201 :
                                 2579   CBLOCKEND 195 5 834
                                 2580   
                                 2581   ;;	main_clrWDT();	
                                 2582   CLINEA 0000H 0001H 0345H 0002H 0010H
00:0076 01-F0'00-00'             2583   	bl	_main_clrWDT
                                 2584   
                                 2585   ;;	tm_startAB();
                                 2586   CLINEA 0000H 0001H 00CFH 0002H 000AH
00:007A 00 00                    2587   	mov	r0,	#00h
00:007C 11-90 E9-F8              2588   	st	r0,	0f8e9h
                                 2589   
                                 2590   ;;	tm_startAB();
                                 2591   CLINEA 0000H 0000H 00D0H 0002H 000BH
00:0080 80-A0 EB-F8              2592   	sb	0f8ebh.0
                                 2593   
                                 2594   ;;	timer = tm_getABCounter();
                                 2595   CLINEA 0000H 0000H 011EH 0002H 001BH
00:0084 10-90 E9-F8              2596   	l	r0,	0f8e9h
00:0088 00 01                    2597   	mov	r1,	#00h
00:008A 05-F2                    2598   	mov	er2,	er0
                                 2599   
                                 2600   ;;	timer = tm_getABCounter();
                                 2601   CLINEA 0000H 0000H 011FH 0002H 0014H
00:008C 10-90 ED-F8              2602   	l	r0,	0f8edh
00:0090 03-83                    2603   	or	r3,	r0
                                 2604   
                                 2605   ;;	timer = tm_getABCounter();
                                 2606   CLINEA 0000H 0000H 0120H 0002H 000CH
00:0092 25-F0                    2607   	mov	er0,	er2
                                 2608   
                                 2609   ;;	while(timer < timerThres){
                                 2610   CLINEA 0000H 0001H 0349H 0002H 001BH
00:0094 08 CE                    2611   	bal	_$L204
00:0096                          2612   _$L206 :
                                 2613   CBLOCK 195 9 841
                                 2614   
                                 2615   ;;		timer = tm_getABCounter();
                                 2616   CLINEA 0000H 0000H 011EH 0002H 001BH
00:0096 10-90 E9-F8              2617   	l	r0,	0f8e9h
00:009A 00 01                    2618   	mov	r1,	#00h
00:009C 05-F2                    2619   	mov	er2,	er0
                                 2620   
                                 2621   ;;		timer = tm_getABCounter();
                                 2622   CLINEA 0000H 0000H 011FH 0002H 0014H
00:009E 10-90 ED-F8              2623   	l	r0,	0f8edh
00:00A2 03-83                    2624   	or	r3,	r0
                                 2625   
                                 2626   ;;		timer = tm_getABCounter();
                                 2627   CLINEA 0000H 0000H 0120H 0002H 000CH
00:00A4 25-F0                    2628   	mov	er0,	er2
                                 2629   
                                 2630   ;;		timer = tm_getABCounter();
                                 2631   CLINEA 0000H 0000H 034AH 0003H 001CH
                                 2632   CBLOCKEND 195 9 844
                                 2633   
                                 2634   ;;	}
                                 2635   CLINEA 0000H 0000H 034CH 0002H 0002H
00:00A6                          2636   _$L204 :
                                 2637   
                                 2638   ;;	while(timer < timerThres){
                                 2639   CLINEA 0000H 0000H 0349H 0008H 000CH
00:00A6 C7-F0                    2640   	cmp	er0,	bp
00:00A8 F6 C1                    2641   	blt	_$L206
                                 2642   
                                 2643   ;;	if(TimeFlag !=0){
                                 2644   CLINEA 0000H 0001H 034DH 0002H 0012H
00:00AA 00 76                    2645   	cmp	r6,	#00h
00:00AC 05 C9                    2646   	beq	_$L209
                                 2647   
                                 2648   ;;		tm_stopAB();
                                 2649   CLINEA 0000H 0001H 0103H 0002H 000BH
00:00AE 82-A0 EB-F8              2650   	rb	0f8ebh.0
                                 2651   
                                 2652   ;;		TimeFlag--;
                                 2653   CLINEA 0000H 0000H 034FH 0003H 000DH
00:00B2 FF 16                    2654   	add	r6,	#0ffh
                                 2655   
                                 2656   ;;		timerThres = 0xFFFF;
                                 2657   CLINEA 0000H 0001H 0350H 0003H 0016H
00:00B4 7F EC                    2658   	mov	bp,	#-1
                                 2659   
                                 2660   ;;		goto TimerRestart;
                                 2661   CLINEA 0000H 0001H 0351H 0003H 0014H
00:00B6 DF CE                    2662   	bal	_$L201
                                 2663   
                                 2664   ;;	}
                                 2665   CLINEA 0000H 0000H 0352H 0002H 0002H
00:00B8                          2666   _$L209 :
                                 2667   CBLOCKEND 195 2 851
                                 2668   
                                 2669   ;;}
                                 2670   CLINEA 0000H 0001H 0353H 0001H 0001H
00:00B8 1E-F8                    2671   	pop	er8
00:00BA 1E-FC                    2672   	pop	bp
00:00BC 2E-F4                    2673   	pop	xr4
00:00BE 8E-F2                    2674   	pop	pc
                                 2675   CBLOCKEND 195 1 851
                                 2676   CFUNCTIONEND 195
                                 2677   
                                 2678   
  --------------------------     2679   	rseg $$Initialization$main
                                 2680   CFUNCTION 178
                                 2681   
00:0000                          2682   _Initialization	:
                                 2683   CBLOCK 178 1 858
                                 2684   
                                 2685   ;;{
                                 2686   CLINEA 0000H 0001H 035AH 0001H 0001H
00:0000 CE-F8                    2687   	push	lr
                                 2688   CBLOCK 178 2 858
                                 2689   CRET 0000H
                                 2690   
                                 2691   ;;	DSIO0 = 0; // 0=> Enables Synchronous Serial Port 0 (initial value).
                                 2692   CLINEA 0000H 0001H 035EH 0002H 0045H
00:0002 82-A0 2A-F0              2693   	rb	0f02ah.0
                                 2694   
                                 2695   ;;	DUA0  = 0; // 0=> Enables the operation of UART0 (initial value). 
                                 2696   CLINEA 0000H 0001H 0360H 0002H 0043H
00:0006 A2-A0 2A-F0              2697   	rb	0f02ah.2
                                 2698   
                                 2699   ;;	DUA1  = 1; // 0=> Enables Uart1 (initial value). 
                                 2700   CLINEA 0000H 0001H 0362H 0002H 0032H
00:000A B0-A0 2A-F0              2701   	sb	0f02ah.3
                                 2702   
                                 2703   ;;	DI2C1 = 1; // 0=> Enables I2C bus Interface (Slave) (initial value).
                                 2704   CLINEA 0000H 0001H 0363H 0002H 0045H
00:000E E0-A0 2A-F0              2705   	sb	0f02ah.6
                                 2706   
                                 2707   ;;	DI2C0 = 0; // 0=> Enables I2C bus Interface (Master) (initial value).	
                                 2708   CLINEA 0000H 0001H 0364H 0002H 0047H
00:0012 F2-A0 2A-F0              2709   	rb	0f02ah.7
                                 2710   
                                 2711   ;;	BLKCON4 = 0x01; // 0=> Enables SA-ADC
                                 2712   CLINEA 0000H 0001H 0366H 0002H 0026H
00:0016 01 00                    2713   	mov	r0,	#01h
00:0018 11-90 2C-F0              2714   	st	r0,	0f02ch
                                 2715   
                                 2716   ;;	BLKCON6 = 0xC3; // (1=disables; 0=enables) the operation of Timers 8, 9, A, E, F.
                                 2717   CLINEA 0000H 0001H 0367H 0002H 0052H
00:001C C3 00                    2718   	mov	r0,	#0c3h
00:001E 11-90 2E-F0              2719   	st	r0,	0f02eh
                                 2720   
                                 2721   ;;	BLKCON7 = 0x00; // (1=disables; 0=enables) the operation of PWM (PWMC, PWMD, PWME, PWMF
                                 2722   CLINEA 0000H 0001H 0369H 0002H 0058H
00:0022 00 00                    2723   	mov	r0,	#00h
00:0024 11-90 2F-F0              2724   	st	r0,	0f02fh
                                 2725   
                                 2726   ;;	PortA_Low();	//Initialize all 3 Ports of Q111 Port A to GPIO-Low
                                 2727   CLINEA 0000H 0001H 036DH 0002H 0041H
00:0028 01-F0'00-00'             2728   	bl	_PortA_Low
                                 2729   
                                 2730   ;;	PortB_Low();	//Initialize all 8 Ports of Q111 Port B to GPIO-Low
                                 2731   CLINEA 0000H 0001H 036EH 0002H 0041H
00:002C 01-F0'00-00'             2732   	bl	_PortB_Low
                                 2733   
                                 2734   ;;	PortC_Low();	//Initialize all 4 Ports of Q111 Port C to GPIO-Low
                                 2735   CLINEA 0000H 0001H 036FH 0002H 0041H
00:0030 01-F0'00-00'             2736   	bl	_PortC_Low
                                 2737   
                                 2738   ;;	SetOSC(); //8MHz
                                 2739   CLINEA 0000H 0001H 0372H 0002H 0011H
00:0034 01-F0'00-00'             2740   	bl	_SetOSC
                                 2741   
                                 2742   ;;	irq_di(); 	//Disable Interrupts...
                                 2743   CLINEA 0000H 0001H 0375H 0002H 0023H
00:0038 01-F0'00-00'             2744   	bl	_irq_di
                                 2745   
                                 2746   ;;	irq_init();	//Initialize Interrupts (All Off and NO Requests)
                                 2747   CLINEA 0000H 0001H 0376H 0002H 003EH
00:003C 01-F0'00-00'             2748   	bl	_irq_init
                                 2749   
                                 2750   ;;	IE0 = IE1 = IE2 = IE3 = IE4 = IE5 = IE6 = IE7 = 0; // 0=DISABLED; 1=ENABLED
                                 2751   CLINEA 0000H 0001H 0379H 0002H 004CH
00:0040 00 00                    2752   	mov	r0,	#00h
00:0042 11-90 17-F0              2753   	st	r0,	0f017h
00:0046 11-90 16-F0              2754   	st	r0,	0f016h
00:004A 11-90 15-F0              2755   	st	r0,	0f015h
00:004E 11-90 14-F0              2756   	st	r0,	0f014h
00:0052 11-90 13-F0              2757   	st	r0,	0f013h
00:0056 11-90 12-F0              2758   	st	r0,	0f012h
00:005A 11-90 11-F0              2759   	st	r0,	0f011h
00:005E 11-90 10-F0              2760   	st	r0,	0f010h
                                 2761   
                                 2762   ;;	IRQ0 = IRQ1 = IRQ2 = IRQ3 = IRQ4 = IRQ5 = IRQ6 = IRQ7 = 0;	//Clear all Requests...
                                 2763   CLINEA 0000H 0001H 037CH 0002H 0053H
00:0062 11-90 1F-F0              2764   	st	r0,	0f01fh
00:0066 11-90 1E-F0              2765   	st	r0,	0f01eh
00:006A 11-90 1D-F0              2766   	st	r0,	0f01dh
00:006E 11-90 1C-F0              2767   	st	r0,	0f01ch
00:0072 11-90 1B-F0              2768   	st	r0,	0f01bh
00:0076 11-90 1A-F0              2769   	st	r0,	0f01ah
00:007A 11-90 19-F0              2770   	st	r0,	0f019h
00:007E 11-90 18-F0              2771   	st	r0,	0f018h
                                 2772   
                                 2773   ;;	E2H = 0; 	// E2H is the Enable flag for 2Hz TBC Interrupt (1=ENABLED)
                                 2774   CLINEA 0000H 0001H 037EH 0002H 0046H
00:0082 B2-A0 17-F0              2775   	rb	0f017h.3
                                 2776   
                                 2777   ;;	irq_setHdr((unsigned char)IRQ_NO_UA0INT, _intUart);
                                 2778   CLINEA 0000H 0001H 0380H 0002H 0034H
00:0086 00'02                    2779   	mov	r2,	#BYTE1 OFFSET __intUart
00:0088 00'03                    2780   	mov	r3,	#BYTE2 OFFSET __intUart
00:008A 0F 00                    2781   	mov	r0,	#0fh
00:008C 01-F0'00-00'             2782   	bl	_irq_setHdr
                                 2783   
                                 2784   ;;	EUA0 = 1; 	// EUA0 is the enable flag for the UART0 interrupt (1=ENABLED)
                                 2785   CLINEA 0000H 0001H 0381H 0002H 004AH
00:0090 80-A0 14-F0              2786   	sb	0f014h.0
                                 2787   
                                 2788   ;;	irq_setHdr((unsigned char)IRQ_NO_I2CMINT, _intI2c);
                                 2789   CLINEA 0000H 0001H 0384H 0002H 0034H
00:0094 00'02                    2790   	mov	r2,	#BYTE1 OFFSET __intI2c
00:0096 00'03                    2791   	mov	r3,	#BYTE2 OFFSET __intI2c
00:0098 0C 00                    2792   	mov	r0,	#0ch
00:009A 01-F0'00-00'             2793   	bl	_irq_setHdr
                                 2794   
                                 2795   ;;	EI2CM = 1;
                                 2796   CLINEA 0000H 0001H 0385H 0002H 000BH
00:009E F0-A0 12-F0              2797   	sb	0f012h.7
                                 2798   
                                 2799   ;;	QI2CM = 0; 
                                 2800   CLINEA 0000H 0001H 0386H 0002H 000CH
00:00A2 F2-A0 1A-F0              2801   	rb	0f01ah.7
                                 2802   
                                 2803   ;;	PB2MD0 = 0;
                                 2804   CLINEA 0000H 0001H 0389H 0002H 000CH
00:00A6 A2-A0 5C-F2              2805   	rb	0f25ch.2
                                 2806   
                                 2807   ;;	PB2MD1 = 0;
                                 2808   CLINEA 0000H 0001H 038AH 0002H 000CH
00:00AA A2-A0 5D-F2              2809   	rb	0f25dh.2
                                 2810   
                                 2811   ;;	PB2DIR = 1;
                                 2812   CLINEA 0000H 0001H 038BH 0002H 000CH
00:00AE A0-A0 59-F2              2813   	sb	0f259h.2
                                 2814   
                                 2815   ;;	PB2C0 = 0;
                                 2816   CLINEA 0000H 0001H 038CH 0002H 000BH
00:00B2 A2-A0 5A-F2              2817   	rb	0f25ah.2
                                 2818   
                                 2819   ;;	PB2C1 = 1;
                                 2820   CLINEA 0000H 0001H 038DH 0002H 000BH
00:00B6 A0-A0 5B-F2              2821   	sb	0f25bh.2
                                 2822   
                                 2823   ;;	PB2E0 = 1;
                                 2824   CLINEA 0000H 0001H 038EH 0002H 000BH
00:00BA E0-A0 24-F0              2825   	sb	0f024h.6
                                 2826   
                                 2827   ;;	PB2E1 = 0;
                                 2828   CLINEA 0000H 0001H 038FH 0002H 000BH
00:00BE E2-A0 25-F0              2829   	rb	0f025h.6
                                 2830   
                                 2831   ;;	irq_setHdr((unsigned char)IRQ_NO_PB2INT, _intPB2);
                                 2832   CLINEA 0000H 0001H 0393H 0002H 0033H
00:00C2 00'02                    2833   	mov	r2,	#BYTE1 OFFSET __intPB2
00:00C4 00'03                    2834   	mov	r3,	#BYTE2 OFFSET __intPB2
00:00C6 07 00                    2835   	mov	r0,	#07h
00:00C8 01-F0'00-00'             2836   	bl	_irq_setHdr
                                 2837   
                                 2838   ;;	EPB2 = 1;
                                 2839   CLINEA 0000H 0001H 0394H 0002H 000AH
00:00CC E0-A0 11-F0              2840   	sb	0f011h.6
                                 2841   
                                 2842   ;;	QPB2 = 0;
                                 2843   CLINEA 0000H 0001H 0395H 0002H 000AH
00:00D0 E2-A0 19-F0              2844   	rb	0f019h.6
                                 2845   
                                 2846   ;;	irq_ei();	// Enable Interrupts...
                                 2847   CLINEA 0000H 0001H 0397H 0002H 0022H
00:00D4 01-F0'00-00'             2848   	bl	_irq_ei
                                 2849   
                                 2850   ;;	WDTMOD = 0x03; 	// 0x03=overflow 8sec...
                                 2851   CLINEA 0000H 0001H 039AH 0002H 0029H
00:00D8 03 00                    2852   	mov	r0,	#03h
00:00DA 11-90 0F-F0              2853   	st	r0,	0f00fh
                                 2854   
                                 2855   ;;	main_clrWDT(); 	// Clear WDT
                                 2856   CLINEA 0000H 0001H 039BH 0002H 001DH
00:00DE 01-F0'00-00'             2857   	bl	_main_clrWDT
                                 2858   
                                 2859   ;;	i2c_init(I2C_MOD_FST, (unsigned short)HSCLK_KHZ, I2C_SYN_OFF);
                                 2860   CLINEA 0000H 0001H 03A1H 0002H 003FH
00:00E2 00 00                    2861   	mov	r0,	#00h
00:00E4 4E-F0                    2862   	push	r0
00:00E6 00 02                    2863   	mov	r2,	#00h
00:00E8 20 03                    2864   	mov	r3,	#020h
00:00EA 01 00                    2865   	mov	r0,	#01h
00:00EC 01-F0'00-00'             2866   	bl	_i2c_init
00:00F0 02 E1                    2867   	add	sp,	#2 
                                 2868   
                                 2869   ;;			     &_uartSetParam );						// Param... 	 
                                 2870   CLINEA 0000H 0001H 03A7H 0009H 002DH
00:00F2 00'00                    2871   	mov	r0,	#BYTE1 OFFSET __uartSetParam
00:00F4 00'01                    2872   	mov	r1,	#BYTE2 OFFSET __uartSetParam
00:00F6 5E-F0                    2873   	push	er0
00:00F8 00 02                    2874   	mov	r2,	#00h
00:00FA 20 03                    2875   	mov	r3,	#020h
00:00FC 02 00                    2876   	mov	r0,	#02h
00:00FE 01-F0'00-00'             2877   	bl	_uart_init
00:0102 02 E1                    2878   	add	sp,	#2 
                                 2879   
                                 2880   ;;	uart_PortSet();
                                 2881   CLINEA 0000H 0001H 03A8H 0002H 0010H
00:0104 01-F0'00-00'             2882   	bl	_uart_PortSet
                                 2883   
                                 2884   ;;	_flgUartFin = 0;
                                 2885   CLINEA 0000H 0001H 03A9H 0002H 0011H
00:0108 00 00                    2886   	mov	r0,	#00h
00:010A 11-90 00-00'             2887   	st	r0,	NEAR __flgUartFin
                                 2888   
                                 2889   ;;	uart_stop();
                                 2890   CLINEA 0000H 0001H 03AAH 0002H 000DH
00:010E 01-F0'00-00'             2891   	bl	_uart_stop
                                 2892   
                                 2893   ;;	PB4DIR = 0;		// PortB Bit7 set to Output Mode...
                                 2894   CLINEA 0000H 0001H 03AEH 0002H 0031H
00:0112 C2-A0 59-F2              2895   	rb	0f259h.4
                                 2896   
                                 2897   ;;	PB4C1  = 1;		// PortB Bit7 set to CMOS Output...
                                 2898   CLINEA 0000H 0001H 03AFH 0002H 0031H
00:0116 C0-A0 5B-F2              2899   	sb	0f25bh.4
                                 2900   
                                 2901   ;;	PB4C0  = 1;	
                                 2902   CLINEA 0000H 0001H 03B0H 0002H 000DH
00:011A C0-A0 5A-F2              2903   	sb	0f25ah.4
                                 2904   
                                 2905   ;;	PB4MD1  = 0;	// PortB Bit7 set to General Purpose Output...
                                 2906   CLINEA 0000H 0001H 03B1H 0002H 003CH
00:011E C2-A0 5D-F2              2907   	rb	0f25dh.4
                                 2908   
                                 2909   ;;	PB4MD0  = 0;
                                 2910   CLINEA 0000H 0001H 03B2H 0002H 000DH
00:0122 C2-A0 5C-F2              2911   	rb	0f25ch.4
                                 2912   
                                 2913   ;;	PB4D = 0;		// B.7 Output OFF....
                                 2914   CLINEA 0000H 0001H 03B3H 0002H 0021H
00:0126 C2-A0 58-F2              2915   	rb	0f258h.4
                                 2916   CBLOCKEND 178 2 949
                                 2917   
                                 2918   ;;}//End Initialization
                                 2919   CLINEA 0000H 0001H 03B5H 0001H 0015H
00:012A 8E-F2                    2920   	pop	pc
                                 2921   CBLOCKEND 178 1 949
                                 2922   CFUNCTIONEND 178
                                 2923   
                                 2924   
  --------------------------     2925   	rseg $$OutputPWM$main
                                 2926   CFUNCTION 196
                                 2927   
00:0000                          2928   _OutputPWM	:
                                 2929   CBLOCK 196 1 953
                                 2930   
                                 2931   ;;void OutputPWM(void){ 
                                 2932   CLINEA 0000H 0001H 03B9H 0001H 0016H
                                 2933   CBLOCK 196 2 953
                                 2934   
                                 2935   ;;      PA2DIR = 0;       // PortB Bit0 set to Output Mode... 
                                 2936   CLINEA 0000H 0001H 03C5H 0007H 003CH
00:0000 A2-A0 51-F2              2937   	rb	0f251h.2
                                 2938   
                                 2939   ;;      PA2C1  = 1;       // PortB Bit0 set to CMOS Output...
                                 2940   CLINEA 0000H 0001H 03C8H 0007H 003BH
00:0004 A0-A0 53-F2              2941   	sb	0f253h.2
                                 2942   
                                 2943   ;;      PA2C0  = 1;       
                                 2944   CLINEA 0000H 0001H 03C9H 0007H 0018H
00:0008 A0-A0 52-F2              2945   	sb	0f252h.2
                                 2946   
                                 2947   ;;      PA2MD1  = 0;            // PortC Bit0 set to PWM Output (1,0)...
                                 2948   CLINEA 0000H 0001H 03CCH 0007H 0046H
00:000C A2-A0 55-F2              2949   	rb	0f255h.2
                                 2950   
                                 2951   ;;      PA2MD0  = 1;    
                                 2952   CLINEA 0000H 0001H 03CDH 0007H 0016H
00:0010 A0-A0 54-F2              2953   	sb	0f254h.2
                                 2954   
                                 2955   ;;      PECS1 = 0;        //00= LS; 01=HS; 10=PLL
                                 2956   CLINEA 0000H 0001H 03D0H 0007H 002FH
00:0014 92-A0 36-F9              2957   	rb	0f936h.1
                                 2958   
                                 2959   ;;      PECS0 = 1;
                                 2960   CLINEA 0000H 0001H 03D1H 0007H 0010H
00:0018 80-A0 36-F9              2961   	sb	0f936h.0
                                 2962   
                                 2963   ;;      PWEP = 250;            // Init Period to (1=255kHz; 10=46kHz; 50=10kHz; 200=2.5kH; ; 3185 = 160Hz; 3400=150Hz; 4250=120Hz; 5000=102Hz)
                                 2964   CLINEA 0000H 0001H 03D7H 0007H 008CH
00:001C FA 00                    2965   	mov	r0,	#0fah
00:001E 00 01                    2966   	mov	r1,	#00h
00:0020 13-90 30-F9              2967   	st	er0,	0f930h
                                 2968   
                                 2969   ;;	  PWED = 0;
                                 2970   CLINEA 0000H 0001H 03DFH 0004H 000CH
00:0024 00 E0                    2971   	mov	er0,	#0 
00:0026 13-90 32-F9              2972   	st	er0,	0f932h
                                 2973   
                                 2974   ;;      PERUN = 0;        // OFF to start
                                 2975   CLINEA 0000H 0001H 03E8H 0007H 0027H
00:002A 82-A0 37-F9              2976   	rb	0f937h.0
                                 2977   
                                 2978   ;;      PB7DIR = 0;       // PortB Bit0 set to Output Mode... 
                                 2979   CLINEA 0000H 0001H 03EEH 0007H 003CH
00:002E F2-A0 59-F2              2980   	rb	0f259h.7
                                 2981   
                                 2982   ;;      PB7C1  = 1;       // PortB Bit0 set to CMOS Output...
                                 2983   CLINEA 0000H 0001H 03F0H 0007H 003BH
00:0032 F0-A0 5B-F2              2984   	sb	0f25bh.7
                                 2985   
                                 2986   ;;      PB7C0  = 1;       
                                 2987   CLINEA 0000H 0001H 03F1H 0007H 0018H
00:0036 F0-A0 5A-F2              2988   	sb	0f25ah.7
                                 2989   
                                 2990   ;;      PB7MD1  = 1;            // PortC Bit0 set to PWM Output (1,0)...
                                 2991   CLINEA 0000H 0001H 03F3H 0007H 0046H
00:003A F0-A0 5D-F2              2992   	sb	0f25dh.7
                                 2993   
                                 2994   ;;      PB7MD0  = 0;    
                                 2995   CLINEA 0000H 0001H 03F4H 0007H 0016H
00:003E F2-A0 5C-F2              2996   	rb	0f25ch.7
                                 2997   
                                 2998   ;;      PFCS1 = 0;        //00= LS; 01=HS; 10=PLL
                                 2999   CLINEA 0000H 0001H 03F6H 0007H 002FH
00:0042 92-A0 72-F9              3000   	rb	0f972h.1
                                 3001   
                                 3002   ;;      PFCS0 = 1; 
                                 3003   CLINEA 0000H 0001H 03F7H 0007H 0011H
00:0046 80-A0 72-F9              3004   	sb	0f972h.0
                                 3005   
                                 3006   ;;      PWFP = 255;         
                                 3007   CLINEA 0000H 0001H 03F9H 0007H 001AH
00:004A FF 00                    3008   	mov	r0,	#0ffh
00:004C 13-90 60-F9              3009   	st	er0,	0f960h
                                 3010   
                                 3011   ;;	  PWF0D = 0; 
                                 3012   CLINEA 0000H 0001H 03FBH 0004H 000EH
00:0050 00 E0                    3013   	mov	er0,	#0 
00:0052 13-90 62-F9              3014   	st	er0,	0f962h
                                 3015   
                                 3016   ;;      PFRUN = 0;        // OFF to start
                                 3017   CLINEA 0000H 0001H 03FCH 0007H 0027H
00:0056 82-A0 73-F9              3018   	rb	0f973h.0
                                 3019   
                                 3020   ;;      PA0DIR = 0;       // PortB Bit0 set to Output Mode... 
                                 3021   CLINEA 0000H 0001H 0400H 0007H 003CH
00:005A 82-A0 51-F2              3022   	rb	0f251h.0
                                 3023   
                                 3024   ;;      PA0C1  = 1;       // PortB Bit0 set to CMOS Output...
                                 3025   CLINEA 0000H 0001H 0402H 0007H 003BH
00:005E 80-A0 53-F2              3026   	sb	0f253h.0
                                 3027   
                                 3028   ;;      PA0C0  = 1;       
                                 3029   CLINEA 0000H 0001H 0403H 0007H 0018H
00:0062 80-A0 52-F2              3030   	sb	0f252h.0
                                 3031   
                                 3032   ;;      PA0MD1  = 0;            // PortC Bit0 set to PWM Output (1,0)...
                                 3033   CLINEA 0000H 0001H 0405H 0007H 0046H
00:0066 82-A0 55-F2              3034   	rb	0f255h.0
                                 3035   
                                 3036   ;;      PA0MD0  = 1;    
                                 3037   CLINEA 0000H 0001H 0406H 0007H 0016H
00:006A 80-A0 54-F2              3038   	sb	0f254h.0
                                 3039   
                                 3040   ;;      PCCS1 = 0;        //00= LS; 01=HS; 10=PLL
                                 3041   CLINEA 0000H 0001H 0408H 0007H 002FH
00:006E 92-A0 16-F9              3042   	rb	0f916h.1
                                 3043   
                                 3044   ;;      PCCS0 = 1; 
                                 3045   CLINEA 0000H 0001H 0409H 0007H 0011H
00:0072 80-A0 16-F9              3046   	sb	0f916h.0
                                 3047   
                                 3048   ;;      PWCP = 255;         
                                 3049   CLINEA 0000H 0001H 040BH 0007H 001AH
00:0076 FF 00                    3050   	mov	r0,	#0ffh
00:0078 13-90 10-F9              3051   	st	er0,	0f910h
                                 3052   
                                 3053   ;;	  PWCD = 0; 
                                 3054   CLINEA 0000H 0001H 040DH 0004H 000DH
00:007C 00 E0                    3055   	mov	er0,	#0 
00:007E 13-90 12-F9              3056   	st	er0,	0f912h
                                 3057   
                                 3058   ;;      PCRUN = 0;        // OFF to start
                                 3059   CLINEA 0000H 0001H 040EH 0007H 0027H
00:0082 82-A0 17-F9              3060   	rb	0f917h.0
                                 3061   
                                 3062   ;;      PA1DIR = 0;       // PortB Bit0 set to Output Mode... 
                                 3063   CLINEA 0000H 0001H 0412H 0007H 003CH
00:0086 92-A0 51-F2              3064   	rb	0f251h.1
                                 3065   
                                 3066   ;;      PA1C1  = 1;       // PortB Bit0 set to CMOS Output...
                                 3067   CLINEA 0000H 0001H 0414H 0007H 003BH
00:008A 90-A0 53-F2              3068   	sb	0f253h.1
                                 3069   
                                 3070   ;;      PA1C0  = 1;       
                                 3071   CLINEA 0000H 0001H 0415H 0007H 0018H
00:008E 90-A0 52-F2              3072   	sb	0f252h.1
                                 3073   
                                 3074   ;;      PA1MD1  = 0;            // PortC Bit0 set to PWM Output (1,0)...
                                 3075   CLINEA 0000H 0001H 0417H 0007H 0046H
00:0092 92-A0 55-F2              3076   	rb	0f255h.1
                                 3077   
                                 3078   ;;      PA1MD0  = 1;    
                                 3079   CLINEA 0000H 0001H 0418H 0007H 0016H
00:0096 90-A0 54-F2              3080   	sb	0f254h.1
                                 3081   
                                 3082   ;;      PDCS1 = 0;        //00= LS; 01=HS; 10=PLL
                                 3083   CLINEA 0000H 0001H 041AH 0007H 002FH
00:009A 92-A0 26-F9              3084   	rb	0f926h.1
                                 3085   
                                 3086   ;;      PDCS0 = 1; 
                                 3087   CLINEA 0000H 0001H 041BH 0007H 0011H
00:009E 80-A0 26-F9              3088   	sb	0f926h.0
                                 3089   
                                 3090   ;;      PWDP = 255;         
                                 3091   CLINEA 0000H 0001H 041DH 0007H 001AH
00:00A2 FF 00                    3092   	mov	r0,	#0ffh
00:00A4 13-90 20-F9              3093   	st	er0,	0f920h
                                 3094   
                                 3095   ;;	  PWDD = 0; 
                                 3096   CLINEA 0000H 0001H 041FH 0004H 000DH
00:00A8 00 E0                    3097   	mov	er0,	#0 
00:00AA 13-90 22-F9              3098   	st	er0,	0f922h
                                 3099   
                                 3100   ;;      PDRUN = 0;        // OFF to start
                                 3101   CLINEA 0000H 0001H 0420H 0007H 0027H
00:00AE 82-A0 27-F9              3102   	rb	0f927h.0
                                 3103   CBLOCKEND 196 2 1059
                                 3104   
                                 3105   ;;}
                                 3106   CLINEA 0000H 0001H 0423H 0001H 0001H
00:00B2 1F-FE                    3107   	rt
                                 3108   CBLOCKEND 196 1 1059
                                 3109   CFUNCTIONEND 196
                                 3110   
                                 3111   
  --------------------------     3112   	rseg $$SET_RGB$main
                                 3113   CFUNCTION 200
                                 3114   
00:0000                          3115   _SET_RGB	:
                                 3116   CBLOCK 200 1 1061
                                 3117   
                                 3118   ;;void SET_RGB(rValue,gValue,bValue){   
                                 3119   CLINEA 0000H 0001H 0425H 0001H 0026H
00:0000 5E-FE                    3120   	push	fp
00:0002 1A-AE                    3121   	mov	fp,	sp
00:0004 5E-F8                    3122   	push	er8
00:0006 05-F8                    3123   	mov	er8,	er0
                                 3124   CBLOCK 200 2 1061
                                 3125   CARGUMENT 47H 0002H 0028H "rValue" 02H 00H 01H
                                 3126   CARGUMENT 47H 0002H 0025H "gValue" 02H 00H 01H
                                 3127   CARGUMENT 43H 0002H 0002H "bValue" 02H 00H 01H
                                 3128   
                                 3129   ;;			PFRUN = 0;
                                 3130   CLINEA 0000H 0001H 0426H 0004H 000DH
00:0008 82-A0 73-F9              3131   	rb	0f973h.0
                                 3132   
                                 3133   ;;			PCRUN = 0; 
                                 3134   CLINEA 0000H 0001H 0427H 0004H 000EH
00:000C 82-A0 17-F9              3135   	rb	0f917h.0
                                 3136   
                                 3137   ;;			PDRUN = 0;
                                 3138   CLINEA 0000H 0001H 0428H 0004H 000DH
00:0010 82-A0 27-F9              3139   	rb	0f927h.0
                                 3140   
                                 3141   ;;			PWF0D = bValue; 
                                 3142   CLINEA 0000H 0001H 042AH 0004H 0013H
00:0014 42 B0                    3143   	l	er0,	2[fp]
00:0016 13-90 62-F9              3144   	st	er0,	0f962h
                                 3145   
                                 3146   ;;			PWCD =  rValue;
                                 3147   CLINEA 0000H 0001H 042BH 0004H 0012H
00:001A 13-98 12-F9              3148   	st	er8,	0f912h
                                 3149   
                                 3150   ;;			PWDD  = gValue; 
                                 3151   CLINEA 0000H 0001H 042CH 0004H 0013H
00:001E 13-92 22-F9              3152   	st	er2,	0f922h
                                 3153   
                                 3154   ;;			PFRUN = 1;    
                                 3155   CLINEA 0000H 0001H 042EH 0004H 0011H
00:0022 80-A0 73-F9              3156   	sb	0f973h.0
                                 3157   
                                 3158   ;;			PCRUN = 1;  
                                 3159   CLINEA 0000H 0001H 042FH 0004H 000FH
00:0026 80-A0 17-F9              3160   	sb	0f917h.0
                                 3161   
                                 3162   ;;			PDRUN = 1;  
                                 3163   CLINEA 0000H 0001H 0430H 0004H 000FH
00:002A 80-A0 27-F9              3164   	sb	0f927h.0
                                 3165   CBLOCKEND 200 2 1073
                                 3166   
                                 3167   ;;}
                                 3168   CLINEA 0000H 0001H 0431H 0001H 0001H
00:002E 1E-F8                    3169   	pop	er8
00:0030 EA-A1                    3170   	mov	sp,	fp
00:0032 1E-FE                    3171   	pop	fp
00:0034 1F-FE                    3172   	rt
                                 3173   CBLOCKEND 200 1 1073
                                 3174   CFUNCTIONEND 200
                                 3175   
                                 3176   
  --------------------------     3177   	rseg $$Init_KMX61$main
                                 3178   CFUNCTION 186
                                 3179   
00:0000                          3180   _Init_KMX61	:
                                 3181   CBLOCK 186 1 1086
                                 3182   
                                 3183   ;;{ 
                                 3184   CLINEA 0000H 0001H 043EH 0001H 0002H
00:0000 CE-F8                    3185   	push	lr
                                 3186   CBLOCK 186 2 1086
                                 3187   CRET 0000H
                                 3188   
                                 3189   ;;	RegVal = 0x03u;
                                 3190   CLINEA 0000H 0001H 0440H 0002H 0010H
00:0002 03 00                    3191   	mov	r0,	#03h
00:0004 11-90 00-00'             3192   	st	r0,	NEAR _RegVal
                                 3193   
                                 3194   ;;	I2C_Write(KMX61_I2C_ADDR, &KMX61_STBY_REG, 1, &RegVal, 1);
                                 3195   CLINEA 0000H 0001H 0441H 0002H 003BH
00:0008 01 00                    3196   	mov	r0,	#01h
00:000A 4E-F0                    3197   	push	r0
00:000C 00'00                    3198   	mov	r0,	#BYTE1 OFFSET _RegVal
00:000E 00'01                    3199   	mov	r1,	#BYTE2 OFFSET _RegVal
00:0010 5E-F0                    3200   	push	er0
00:0012 01 00                    3201   	mov	r0,	#01h
00:0014 4E-F0                    3202   	push	r0
00:0016 00'02                    3203   	mov	r2,	#BYTE1 OFFSET _KMX61_STBY_REG
00:0018 00'03                    3204   	mov	r3,	#BYTE2 OFFSET _KMX61_STBY_REG
00:001A 0E 00                    3205   	mov	r0,	#0eh
00:001C 01-F0'00-00'             3206   	bl	_I2C_Write
00:0020 06 E1                    3207   	add	sp,	#6 
                                 3208   
                                 3209   ;;	I2C_Write(KMX61_I2C_ADDR, &KMX61_SELF_TEST, 1, &KMX61_SELF_TEST_CFGDAT, 1);
                                 3210   CLINEA 0000H 0001H 0443H 0002H 004CH
00:0022 01 00                    3211   	mov	r0,	#01h
00:0024 4E-F0                    3212   	push	r0
00:0026 00'00                    3213   	mov	r0,	#BYTE1 OFFSET _KMX61_SELF_TEST_CFGDAT
00:0028 00'01                    3214   	mov	r1,	#BYTE2 OFFSET _KMX61_SELF_TEST_CFGDAT
00:002A 5E-F0                    3215   	push	er0
00:002C 01 00                    3216   	mov	r0,	#01h
00:002E 4E-F0                    3217   	push	r0
00:0030 00'02                    3218   	mov	r2,	#BYTE1 OFFSET _KMX61_SELF_TEST
00:0032 00'03                    3219   	mov	r3,	#BYTE2 OFFSET _KMX61_SELF_TEST
00:0034 0E 00                    3220   	mov	r0,	#0eh
00:0036 01-F0'00-00'             3221   	bl	_I2C_Write
00:003A 06 E1                    3222   	add	sp,	#6 
                                 3223   
                                 3224   ;;	I2C_Write(KMX61_I2C_ADDR, &KMX61_CNTL1, 1, &KMX61_CNTL1_CFGDAT, 1);
                                 3225   CLINEA 0000H 0001H 0444H 0002H 0044H
00:003C 01 00                    3226   	mov	r0,	#01h
00:003E 4E-F0                    3227   	push	r0
00:0040 00'00                    3228   	mov	r0,	#BYTE1 OFFSET _KMX61_CNTL1_CFGDAT
00:0042 00'01                    3229   	mov	r1,	#BYTE2 OFFSET _KMX61_CNTL1_CFGDAT
00:0044 5E-F0                    3230   	push	er0
00:0046 01 00                    3231   	mov	r0,	#01h
00:0048 4E-F0                    3232   	push	r0
00:004A 00'02                    3233   	mov	r2,	#BYTE1 OFFSET _KMX61_CNTL1
00:004C 00'03                    3234   	mov	r3,	#BYTE2 OFFSET _KMX61_CNTL1
00:004E 0E 00                    3235   	mov	r0,	#0eh
00:0050 01-F0'00-00'             3236   	bl	_I2C_Write
00:0054 06 E1                    3237   	add	sp,	#6 
                                 3238   
                                 3239   ;;	I2C_Write(KMX61_I2C_ADDR, &KMX61_CNTL2, 1, &KMX61_CNTL2_CFGDAT, 1);
                                 3240   CLINEA 0000H 0001H 0445H 0002H 0044H
00:0056 01 00                    3241   	mov	r0,	#01h
00:0058 4E-F0                    3242   	push	r0
00:005A 00'00                    3243   	mov	r0,	#BYTE1 OFFSET _KMX61_CNTL2_CFGDAT
00:005C 00'01                    3244   	mov	r1,	#BYTE2 OFFSET _KMX61_CNTL2_CFGDAT
00:005E 5E-F0                    3245   	push	er0
00:0060 01 00                    3246   	mov	r0,	#01h
00:0062 4E-F0                    3247   	push	r0
00:0064 00'02                    3248   	mov	r2,	#BYTE1 OFFSET _KMX61_CNTL2
00:0066 00'03                    3249   	mov	r3,	#BYTE2 OFFSET _KMX61_CNTL2
00:0068 0E 00                    3250   	mov	r0,	#0eh
00:006A 01-F0'00-00'             3251   	bl	_I2C_Write
00:006E 06 E1                    3252   	add	sp,	#6 
                                 3253   
                                 3254   ;;	I2C_Write(KMX61_I2C_ADDR, &KMX61_ODCNTL, 1, &KMX61_ODCNTL_CFGDAT, 1);
                                 3255   CLINEA 0000H 0001H 0446H 0002H 0046H
00:0070 01 00                    3256   	mov	r0,	#01h
00:0072 4E-F0                    3257   	push	r0
00:0074 00'00                    3258   	mov	r0,	#BYTE1 OFFSET _KMX61_ODCNTL_CFGDAT
00:0076 00'01                    3259   	mov	r1,	#BYTE2 OFFSET _KMX61_ODCNTL_CFGDAT
00:0078 5E-F0                    3260   	push	er0
00:007A 01 00                    3261   	mov	r0,	#01h
00:007C 4E-F0                    3262   	push	r0
00:007E 00'02                    3263   	mov	r2,	#BYTE1 OFFSET _KMX61_ODCNTL
00:0080 00'03                    3264   	mov	r3,	#BYTE2 OFFSET _KMX61_ODCNTL
00:0082 0E 00                    3265   	mov	r0,	#0eh
00:0084 01-F0'00-00'             3266   	bl	_I2C_Write
00:0088 06 E1                    3267   	add	sp,	#6 
                                 3268   
                                 3269   ;;	I2C_Write(KMX61_I2C_ADDR, &KMX61_TEMP_EN_CNTL, 1, &KMX61_TEMP_EN_CNTL_CFGDAT, 1);
                                 3270   CLINEA 0000H 0001H 0447H 0002H 0052H
00:008A 01 00                    3271   	mov	r0,	#01h
00:008C 4E-F0                    3272   	push	r0
00:008E 00'00                    3273   	mov	r0,	#BYTE1 OFFSET _KMX61_TEMP_EN_CNTL_CFGDAT
00:0090 00'01                    3274   	mov	r1,	#BYTE2 OFFSET _KMX61_TEMP_EN_CNTL_CFGDAT
00:0092 5E-F0                    3275   	push	er0
00:0094 01 00                    3276   	mov	r0,	#01h
00:0096 4E-F0                    3277   	push	r0
00:0098 00'02                    3278   	mov	r2,	#BYTE1 OFFSET _KMX61_TEMP_EN_CNTL
00:009A 00'03                    3279   	mov	r3,	#BYTE2 OFFSET _KMX61_TEMP_EN_CNTL
00:009C 0E 00                    3280   	mov	r0,	#0eh
00:009E 01-F0'00-00'             3281   	bl	_I2C_Write
00:00A2 06 E1                    3282   	add	sp,	#6 
                                 3283   
                                 3284   ;;	I2C_Write(KMX61_I2C_ADDR, &KMX61_BUF_CTRL1, 1, &KMX61_BUF_CTRL1_CFGDAT, 1);
                                 3285   CLINEA 0000H 0001H 0448H 0002H 004CH
00:00A4 01 00                    3286   	mov	r0,	#01h
00:00A6 4E-F0                    3287   	push	r0
00:00A8 00'00                    3288   	mov	r0,	#BYTE1 OFFSET _KMX61_BUF_CTRL1_CFGDAT
00:00AA 00'01                    3289   	mov	r1,	#BYTE2 OFFSET _KMX61_BUF_CTRL1_CFGDAT
00:00AC 5E-F0                    3290   	push	er0
00:00AE 01 00                    3291   	mov	r0,	#01h
00:00B0 4E-F0                    3292   	push	r0
00:00B2 00'02                    3293   	mov	r2,	#BYTE1 OFFSET _KMX61_BUF_CTRL1
00:00B4 00'03                    3294   	mov	r3,	#BYTE2 OFFSET _KMX61_BUF_CTRL1
00:00B6 0E 00                    3295   	mov	r0,	#0eh
00:00B8 01-F0'00-00'             3296   	bl	_I2C_Write
00:00BC 06 E1                    3297   	add	sp,	#6 
                                 3298   
                                 3299   ;;	I2C_Write(KMX61_I2C_ADDR, &KMX61_BUF_CTRL2, 1, &KMX61_BUF_CTRL2_CFGDAT, 1);
                                 3300   CLINEA 0000H 0001H 0449H 0002H 004CH
00:00BE 01 00                    3301   	mov	r0,	#01h
00:00C0 4E-F0                    3302   	push	r0
00:00C2 00'00                    3303   	mov	r0,	#BYTE1 OFFSET _KMX61_BUF_CTRL2_CFGDAT
00:00C4 00'01                    3304   	mov	r1,	#BYTE2 OFFSET _KMX61_BUF_CTRL2_CFGDAT
00:00C6 5E-F0                    3305   	push	er0
00:00C8 01 00                    3306   	mov	r0,	#01h
00:00CA 4E-F0                    3307   	push	r0
00:00CC 00'02                    3308   	mov	r2,	#BYTE1 OFFSET _KMX61_BUF_CTRL2
00:00CE 00'03                    3309   	mov	r3,	#BYTE2 OFFSET _KMX61_BUF_CTRL2
00:00D0 0E 00                    3310   	mov	r0,	#0eh
00:00D2 01-F0'00-00'             3311   	bl	_I2C_Write
00:00D6 06 E1                    3312   	add	sp,	#6 
                                 3313   
                                 3314   ;;	I2C_Write(KMX61_I2C_ADDR, &KMX61_INC1, 1, &KMX61_INC1_CFGDAT, 1);
                                 3315   CLINEA 0000H 0001H 044CH 0002H 0042H
00:00D8 01 00                    3316   	mov	r0,	#01h
00:00DA 4E-F0                    3317   	push	r0
00:00DC 00'00                    3318   	mov	r0,	#BYTE1 OFFSET _KMX61_INC1_CFGDAT
00:00DE 00'01                    3319   	mov	r1,	#BYTE2 OFFSET _KMX61_INC1_CFGDAT
00:00E0 5E-F0                    3320   	push	er0
00:00E2 01 00                    3321   	mov	r0,	#01h
00:00E4 4E-F0                    3322   	push	r0
00:00E6 00'02                    3323   	mov	r2,	#BYTE1 OFFSET _KMX61_INC1
00:00E8 00'03                    3324   	mov	r3,	#BYTE2 OFFSET _KMX61_INC1
00:00EA 0E 00                    3325   	mov	r0,	#0eh
00:00EC 01-F0'00-00'             3326   	bl	_I2C_Write
00:00F0 06 E1                    3327   	add	sp,	#6 
                                 3328   
                                 3329   ;;	I2C_Write(KMX61_I2C_ADDR, &KMX61_INC3, 1, &KMX61_INC3_CFGDAT, 1);
                                 3330   CLINEA 0000H 0001H 044DH 0002H 0042H
00:00F2 01 00                    3331   	mov	r0,	#01h
00:00F4 4E-F0                    3332   	push	r0
00:00F6 00'00                    3333   	mov	r0,	#BYTE1 OFFSET _KMX61_INC3_CFGDAT
00:00F8 00'01                    3334   	mov	r1,	#BYTE2 OFFSET _KMX61_INC3_CFGDAT
00:00FA 5E-F0                    3335   	push	er0
00:00FC 01 00                    3336   	mov	r0,	#01h
00:00FE 4E-F0                    3337   	push	r0
00:0100 00'02                    3338   	mov	r2,	#BYTE1 OFFSET _KMX61_INC3
00:0102 00'03                    3339   	mov	r3,	#BYTE2 OFFSET _KMX61_INC3
00:0104 0E 00                    3340   	mov	r0,	#0eh
00:0106 01-F0'00-00'             3341   	bl	_I2C_Write
00:010A 06 E1                    3342   	add	sp,	#6 
                                 3343   
                                 3344   ;;	I2C_Write(KMX61_I2C_ADDR, &KMX61_WUFTH, 1, &KMX61_WUFTH_CFGDAT, 1);
                                 3345   CLINEA 0000H 0001H 044EH 0002H 0044H
00:010C 01 00                    3346   	mov	r0,	#01h
00:010E 4E-F0                    3347   	push	r0
00:0110 00'00                    3348   	mov	r0,	#BYTE1 OFFSET _KMX61_WUFTH_CFGDAT
00:0112 00'01                    3349   	mov	r1,	#BYTE2 OFFSET _KMX61_WUFTH_CFGDAT
00:0114 5E-F0                    3350   	push	er0
00:0116 01 00                    3351   	mov	r0,	#01h
00:0118 4E-F0                    3352   	push	r0
00:011A 00'02                    3353   	mov	r2,	#BYTE1 OFFSET _KMX61_WUFTH
00:011C 00'03                    3354   	mov	r3,	#BYTE2 OFFSET _KMX61_WUFTH
00:011E 0E 00                    3355   	mov	r0,	#0eh
00:0120 01-F0'00-00'             3356   	bl	_I2C_Write
00:0124 06 E1                    3357   	add	sp,	#6 
                                 3358   
                                 3359   ;;	I2C_Write(KMX61_I2C_ADDR, &KMX61_WUFC, 1, &KMX61_WUFC_CFGDAT, 1);
                                 3360   CLINEA 0000H 0001H 044FH 0002H 0042H
00:0126 01 00                    3361   	mov	r0,	#01h
00:0128 4E-F0                    3362   	push	r0
00:012A 00'00                    3363   	mov	r0,	#BYTE1 OFFSET _KMX61_WUFC_CFGDAT
00:012C 00'01                    3364   	mov	r1,	#BYTE2 OFFSET _KMX61_WUFC_CFGDAT
00:012E 5E-F0                    3365   	push	er0
00:0130 01 00                    3366   	mov	r0,	#01h
00:0132 4E-F0                    3367   	push	r0
00:0134 00'02                    3368   	mov	r2,	#BYTE1 OFFSET _KMX61_WUFC
00:0136 00'03                    3369   	mov	r3,	#BYTE2 OFFSET _KMX61_WUFC
00:0138 0E 00                    3370   	mov	r0,	#0eh
00:013A 01-F0'00-00'             3371   	bl	_I2C_Write
00:013E 06 E1                    3372   	add	sp,	#6 
                                 3373   
                                 3374   ;;	RegVal = 0x02u;
                                 3375   CLINEA 0000H 0001H 0452H 0002H 0010H
00:0140 02 00                    3376   	mov	r0,	#02h
00:0142 11-90 00-00'             3377   	st	r0,	NEAR _RegVal
                                 3378   
                                 3379   ;;	I2C_Write(KMX61_I2C_ADDR, &KMX61_STBY_REG, 1, &RegVal, 1);
                                 3380   CLINEA 0000H 0001H 0453H 0002H 003BH
00:0146 01 00                    3381   	mov	r0,	#01h
00:0148 4E-F0                    3382   	push	r0
00:014A 00'00                    3383   	mov	r0,	#BYTE1 OFFSET _RegVal
00:014C 00'01                    3384   	mov	r1,	#BYTE2 OFFSET _RegVal
00:014E 5E-F0                    3385   	push	er0
00:0150 01 00                    3386   	mov	r0,	#01h
00:0152 4E-F0                    3387   	push	r0
00:0154 00'02                    3388   	mov	r2,	#BYTE1 OFFSET _KMX61_STBY_REG
00:0156 00'03                    3389   	mov	r3,	#BYTE2 OFFSET _KMX61_STBY_REG
00:0158 0E 00                    3390   	mov	r0,	#0eh
00:015A 01-F0'00-00'             3391   	bl	_I2C_Write
00:015E 06 E1                    3392   	add	sp,	#6 
                                 3393   CBLOCKEND 186 2 1108
                                 3394   
                                 3395   ;;}
                                 3396   CLINEA 0000H 0001H 0454H 0001H 0001H
00:0160 8E-F2                    3397   	pop	pc
                                 3398   CBLOCKEND 186 1 1108
                                 3399   CFUNCTIONEND 186
                                 3400   
                                 3401   
  --------------------------     3402   	rseg $$write$main
                                 3403   CFUNCTION 183
                                 3404   
00:0000                          3405   _write	:
                                 3406   CBLOCK 183 1 1121
                                 3407   
                                 3408   ;;{
                                 3409   CLINEA 0000H 0001H 0461H 0001H 0001H
00:0000 CE-F8                    3410   	push	lr
00:0002 5E-FE                    3411   	push	fp
00:0004 1A-AE                    3412   	mov	fp,	sp
00:0006 5E-FA                    3413   	push	er10
00:0008 25-FA                    3414   	mov	er10,	er2
                                 3415   CBLOCK 183 2 1121
                                 3416   CRET 0004H
                                 3417   CARGUMENT 47H 0002H 0000H "handle" 02H 00H 01H
                                 3418   CARGUMENT 46H 0002H 0029H "buffer" 04H 03H 00H 00H 00H
                                 3419   CARGUMENT 42H 0002H 0004H "len" 02H 00H 01H
                                 3420   
                                 3421   ;;	_flgUartFin = 0; 
                                 3422   CLINEA 0000H 0001H 0462H 0002H 0012H
00:000A 00 00                    3423   	mov	r0,	#00h
00:000C 11-90 00-00'             3424   	st	r0,	NEAR __flgUartFin
                                 3425   
                                 3426   ;;	uart_stop();
                                 3427   CLINEA 0000H 0001H 0463H 0002H 000DH
00:0010 01-F0'00-00'             3428   	bl	_uart_stop
                                 3429   
                                 3430   ;;	uart_startSend(buffer, len, _funcUartFin); 
                                 3431   CLINEA 0000H 0001H 0464H 0002H 002CH
00:0014 00'00                    3432   	mov	r0,	#BYTE1 OFFSET __funcUartFin
00:0016 00'01                    3433   	mov	r1,	#BYTE2 OFFSET __funcUartFin
00:0018 5E-F0                    3434   	push	er0
00:001A 44 B2                    3435   	l	er2,	4[fp]
00:001C A5-F0                    3436   	mov	er0,	er10
00:001E 01-F0'00-00'             3437   	bl	_uart_startSend
00:0022 02 E1                    3438   	add	sp,	#2 
                                 3439   
                                 3440   ;;	while(_flgUartFin != 1)
                                 3441   CLINEA 0000H 0000H 0465H 0001H 0001H
00:0024 02 CE                    3442   	bal	_$L221
                                 3443   
                                 3444   ;;	while(_flgUartFin != 1)
                                 3445   CLINEA 0000H 0000H 0465H 0002H 0018H
00:0026                          3446   _$L219 :
                                 3447   CBLOCK 183 3 1126
                                 3448   
                                 3449   ;;		main_clrWDT();
                                 3450   CLINEA 0000H 0001H 0467H 0003H 0010H
00:0026 01-F0'00-00'             3451   	bl	_main_clrWDT
                                 3452   CBLOCKEND 183 3 1128
                                 3453   
                                 3454   ;;	while(_flgUartFin != 1)
                                 3455   CLINEA 0000H 0000H 0465H 0001H 0001H
00:002A                          3456   _$L221 :
                                 3457   
                                 3458   ;;	while(_flgUartFin != 1)
                                 3459   CLINEA 0000H 0000H 0465H 0008H 000CH
00:002A 10-90 00-00'             3460   	l	r0,	NEAR __flgUartFin
00:002E 01 70                    3461   	cmp	r0,	#01h
00:0030 FA C8                    3462   	bne	_$L219
                                 3463   
                                 3464   ;;	return len;
                                 3465   CLINEA 0000H 0001H 0469H 0002H 000CH
00:0032 44 B0                    3466   	l	er0,	4[fp]
                                 3467   CBLOCKEND 183 2 1130
                                 3468   
                                 3469   ;;}
                                 3470   CLINEA 0000H 0000H 046AH 0001H 0001H
00:0034 1E-FA                    3471   	pop	er10
00:0036 EA-A1                    3472   	mov	sp,	fp
00:0038 1E-FE                    3473   	pop	fp
00:003A 8E-F2                    3474   	pop	pc
                                 3475   CBLOCKEND 183 1 1130
                                 3476   CFUNCTIONEND 183
                                 3477   
                                 3478   
  --------------------------     3479   	rseg $$I2C_Read$main
                                 3480   CFUNCTION 184
                                 3481   
00:0000                          3482   _I2C_Read	:
                                 3483   CBLOCK 184 1 1145
                                 3484   
                                 3485   ;;{
                                 3486   CLINEA 0000H 0001H 0479H 0001H 0001H
00:0000 CE-F8                    3487   	push	lr
00:0002 5E-FE                    3488   	push	fp
00:0004 1A-AE                    3489   	mov	fp,	sp
00:0006 6E-F8                    3490   	push	xr8
00:0008 25-FA                    3491   	mov	er10,	er2
00:000A 00-88                    3492   	mov	r8,	r0
                                 3493   CBLOCK 184 2 1145
                                 3494   CRET 0006H
                                 3495   CARGUMENT 46H 0001H 001CH "slave_address" 02H 00H 00H
                                 3496   CARGUMENT 46H 0002H 0029H "reg_address" 04H 03H 00H 00H 00H
                                 3497   CARGUMENT 42H 0001H 0004H "reg_address_size" 02H 00H 00H
                                 3498   CARGUMENT 42H 0002H 0006H "buffer" 04H 03H 00H 00H 00H
                                 3499   CARGUMENT 42H 0001H 0008H "size" 02H 00H 00H
                                 3500   
                                 3501   ;;	_flgI2CFin = 0;
                                 3502   CLINEA 0000H 0001H 047AH 0002H 0010H
00:000C 00 00                    3503   	mov	r0,	#00h
00:000E 11-90 00-00'             3504   	st	r0,	NEAR __flgI2CFin
                                 3505   
                                 3506   ;;	i2c_stop();	
                                 3507   CLINEA 0000H 0001H 047BH 0002H 000DH
00:0012 01-F0'00-00'             3508   	bl	_i2c_stop
                                 3509   
                                 3510   ;;	i2c_startReceive(slave_address, reg_address, reg_address_size, buffer, size, (cbfI2c)_funcI2CFin);
                                 3511   CLINEA 0000H 0001H 047CH 0002H 0063H
00:0016 00'00                    3512   	mov	r0,	#BYTE1 OFFSET __funcI2CFin
00:0018 00'01                    3513   	mov	r1,	#BYTE2 OFFSET __funcI2CFin
00:001A 5E-F0                    3514   	push	er0
00:001C 48 D0                    3515   	l	r0,	8[fp]
00:001E 00 01                    3516   	mov	r1,	#00h
00:0020 5E-F0                    3517   	push	er0
00:0022 46 B0                    3518   	l	er0,	6[fp]
00:0024 5E-F0                    3519   	push	er0
00:0026 44 D0                    3520   	l	r0,	4[fp]
00:0028 00 01                    3521   	mov	r1,	#00h
00:002A 5E-F0                    3522   	push	er0
00:002C A5-F2                    3523   	mov	er2,	er10
00:002E 80-80                    3524   	mov	r0,	r8
00:0030 01-F0'00-00'             3525   	bl	_i2c_startReceive
00:0034 08 E1                    3526   	add	sp,	#8 
                                 3527   
                                 3528   ;;	while(_flgI2CFin != 1)
                                 3529   CLINEA 0000H 0000H 047DH 0001H 0001H
00:0036 02 CE                    3530   	bal	_$L227
                                 3531   
                                 3532   ;;	while(_flgI2CFin != 1)
                                 3533   CLINEA 0000H 0000H 047DH 0002H 0017H
00:0038                          3534   _$L225 :
                                 3535   CBLOCK 184 3 1150
                                 3536   
                                 3537   ;;		main_clrWDT();
                                 3538   CLINEA 0000H 0001H 047FH 0003H 0010H
00:0038 01-F0'00-00'             3539   	bl	_main_clrWDT
                                 3540   CBLOCKEND 184 3 1152
                                 3541   
                                 3542   ;;	while(_flgI2CFin != 1)
                                 3543   CLINEA 0000H 0000H 047DH 0001H 0001H
00:003C                          3544   _$L227 :
                                 3545   
                                 3546   ;;	while(_flgI2CFin != 1)
                                 3547   CLINEA 0000H 0000H 047DH 0008H 000CH
00:003C 10-90 00-00'             3548   	l	r0,	NEAR __flgI2CFin
00:0040 01 70                    3549   	cmp	r0,	#01h
00:0042 FA C8                    3550   	bne	_$L225
                                 3551   CBLOCKEND 184 2 1153
                                 3552   
                                 3553   ;;}
                                 3554   CLINEA 0000H 0001H 0481H 0001H 0001H
00:0044 2E-F8                    3555   	pop	xr8
00:0046 EA-A1                    3556   	mov	sp,	fp
00:0048 1E-FE                    3557   	pop	fp
00:004A 8E-F2                    3558   	pop	pc
                                 3559   CBLOCKEND 184 1 1153
                                 3560   CFUNCTIONEND 184
                                 3561   
                                 3562   
  --------------------------     3563   	rseg $$I2C_Write$main
                                 3564   CFUNCTION 185
                                 3565   
00:0000                          3566   _I2C_Write	:
                                 3567   CBLOCK 185 1 1168
                                 3568   
                                 3569   ;;{
                                 3570   CLINEA 0000H 0001H 0490H 0001H 0001H
00:0000 CE-F8                    3571   	push	lr
00:0002 5E-FE                    3572   	push	fp
00:0004 1A-AE                    3573   	mov	fp,	sp
00:0006 6E-F8                    3574   	push	xr8
00:0008 25-FA                    3575   	mov	er10,	er2
00:000A 00-88                    3576   	mov	r8,	r0
                                 3577   CBLOCK 185 2 1168
                                 3578   CRET 0006H
                                 3579   CARGUMENT 46H 0001H 001CH "slave_address" 02H 00H 00H
                                 3580   CARGUMENT 46H 0002H 0029H "reg_address" 04H 03H 00H 00H 00H
                                 3581   CARGUMENT 42H 0001H 0004H "reg_address_size" 02H 00H 00H
                                 3582   CARGUMENT 42H 0002H 0006H "buffer" 04H 03H 00H 00H 00H
                                 3583   CARGUMENT 42H 0001H 0008H "size" 02H 00H 00H
                                 3584   
                                 3585   ;;	_flgI2CFin = 0;
                                 3586   CLINEA 0000H 0001H 0491H 0002H 0010H
00:000C 00 00                    3587   	mov	r0,	#00h
00:000E 11-90 00-00'             3588   	st	r0,	NEAR __flgI2CFin
                                 3589   
                                 3590   ;;	i2c_stop();	
                                 3591   CLINEA 0000H 0001H 0492H 0002H 000DH
00:0012 01-F0'00-00'             3592   	bl	_i2c_stop
                                 3593   
                                 3594   ;;	i2c_startSend(slave_address, reg_address, reg_address_size, buffer, size, (cbfI2c)_funcI2CFin);
                                 3595   CLINEA 0000H 0001H 0493H 0002H 0060H
00:0016 00'00                    3596   	mov	r0,	#BYTE1 OFFSET __funcI2CFin
00:0018 00'01                    3597   	mov	r1,	#BYTE2 OFFSET __funcI2CFin
00:001A 5E-F0                    3598   	push	er0
00:001C 48 D0                    3599   	l	r0,	8[fp]
00:001E 00 01                    3600   	mov	r1,	#00h
00:0020 5E-F0                    3601   	push	er0
00:0022 46 B0                    3602   	l	er0,	6[fp]
00:0024 5E-F0                    3603   	push	er0
00:0026 44 D0                    3604   	l	r0,	4[fp]
00:0028 00 01                    3605   	mov	r1,	#00h
00:002A 5E-F0                    3606   	push	er0
00:002C A5-F2                    3607   	mov	er2,	er10
00:002E 80-80                    3608   	mov	r0,	r8
00:0030 01-F0'00-00'             3609   	bl	_i2c_startSend
00:0034 08 E1                    3610   	add	sp,	#8 
                                 3611   
                                 3612   ;;	while(_flgI2CFin != 1)
                                 3613   CLINEA 0000H 0000H 0494H 0001H 0001H
00:0036 02 CE                    3614   	bal	_$L233
                                 3615   
                                 3616   ;;	while(_flgI2CFin != 1)
                                 3617   CLINEA 0000H 0000H 0494H 0002H 0017H
00:0038                          3618   _$L231 :
                                 3619   CBLOCK 185 3 1173
                                 3620   
                                 3621   ;;		main_clrWDT();
                                 3622   CLINEA 0000H 0001H 0496H 0003H 0010H
00:0038 01-F0'00-00'             3623   	bl	_main_clrWDT
                                 3624   CBLOCKEND 185 3 1175
                                 3625   
                                 3626   ;;	while(_flgI2CFin != 1)
                                 3627   CLINEA 0000H 0000H 0494H 0001H 0001H
00:003C                          3628   _$L233 :
                                 3629   
                                 3630   ;;	while(_flgI2CFin != 1)
                                 3631   CLINEA 0000H 0000H 0494H 0008H 000CH
00:003C 10-90 00-00'             3632   	l	r0,	NEAR __flgI2CFin
00:0040 01 70                    3633   	cmp	r0,	#01h
00:0042 FA C8                    3634   	bne	_$L231
                                 3635   CBLOCKEND 185 2 1176
                                 3636   
                                 3637   ;;}
                                 3638   CLINEA 0000H 0001H 0498H 0001H 0001H
00:0044 2E-F8                    3639   	pop	xr8
00:0046 EA-A1                    3640   	mov	sp,	fp
00:0048 1E-FE                    3641   	pop	fp
00:004A 8E-F2                    3642   	pop	pc
                                 3643   CBLOCKEND 185 1 1176
                                 3644   CFUNCTIONEND 185
                                 3645   
                                 3646   
  --------------------------     3647   	rseg $$_funcUartFin$main
                                 3648   CFUNCTION 187
                                 3649   
00:0000                          3650   __funcUartFin	:
                                 3651   CBLOCK 187 1 1187
                                 3652   
                                 3653   ;;{
                                 3654   CLINEA 0000H 0001H 04A3H 0001H 0001H
00:0000 CE-F8                    3655   	push	lr
                                 3656   CBLOCK 187 2 1187
                                 3657   CRET 0000H
                                 3658   CARGUMENT 46H 0002H 0000H "size" 02H 00H 01H
                                 3659   CARGUMENT 46H 0001H 0000H "errStat" 02H 00H 00H
                                 3660   
                                 3661   ;;	uart_continue();					// Function in UART.c: process to continue send and receive...
                                 3662   CLINEA 0000H 0001H 04A4H 0002H 0054H
00:0002 01-F0'00-00'             3663   	bl	_uart_continue
                                 3664   
                                 3665   ;;	_flgUartFin = (unsigned char)FLG_SET;
                                 3666   CLINEA 0000H 0001H 04A5H 0002H 0026H
00:0006 01 00                    3667   	mov	r0,	#01h
00:0008 11-90 00-00'             3668   	st	r0,	NEAR __flgUartFin
                                 3669   
                                 3670   ;;	main_reqNotHalt();				// uncommented 5/2/2013
                                 3671   CLINEA 0000H 0001H 04A6H 0002H 002EH
00:000C 01-F0'00-00'             3672   	bl	_main_reqNotHalt
                                 3673   CBLOCKEND 187 2 1191
                                 3674   
                                 3675   ;;}
                                 3676   CLINEA 0000H 0001H 04A7H 0001H 0001H
00:0010 8E-F2                    3677   	pop	pc
                                 3678   CBLOCKEND 187 1 1191
                                 3679   CFUNCTIONEND 187
                                 3680   
                                 3681   
  --------------------------     3682   	rseg $$_funcI2CFin$main
                                 3683   CFUNCTION 188
                                 3684   
00:0000                          3685   __funcI2CFin	:
                                 3686   CBLOCK 188 1 1202
                                 3687   
                                 3688   ;;{
                                 3689   CLINEA 0000H 0001H 04B2H 0001H 0001H
00:0000 CE-F8                    3690   	push	lr
                                 3691   CBLOCK 188 2 1202
                                 3692   CRET 0000H
                                 3693   CARGUMENT 46H 0002H 0000H "size" 02H 00H 01H
                                 3694   CARGUMENT 46H 0001H 0000H "errStat" 02H 00H 00H
                                 3695   
                                 3696   ;;	i2c_continue();					// Function in UART.c: process to continue send and receive...
                                 3697   CLINEA 0000H 0001H 04B3H 0002H 0053H
00:0002 01-F0'00-00'             3698   	bl	_i2c_continue
                                 3699   
                                 3700   ;;	_flgI2CFin = (unsigned char)FLG_SET;
                                 3701   CLINEA 0000H 0001H 04B4H 0002H 0025H
00:0006 01 00                    3702   	mov	r0,	#01h
00:0008 11-90 00-00'             3703   	st	r0,	NEAR __flgI2CFin
                                 3704   
                                 3705   ;;	main_reqNotHalt();				// uncommented 5/2/2013
                                 3706   CLINEA 0000H 0001H 04B5H 0002H 002EH
00:000C 01-F0'00-00'             3707   	bl	_main_reqNotHalt
                                 3708   CBLOCKEND 188 2 1206
                                 3709   
                                 3710   ;;}
                                 3711   CLINEA 0000H 0001H 04B6H 0001H 0001H
00:0010 8E-F2                    3712   	pop	pc
                                 3713   CBLOCKEND 188 1 1206
                                 3714   CFUNCTIONEND 188
                                 3715   
                                 3716   
  --------------------------     3717   	rseg $$_intI2c$main
                                 3718   CFUNCTION 192
                                 3719   
00:0000                          3720   __intI2c	:
                                 3721   CBLOCK 192 1 1216
                                 3722   
                                 3723   ;;{
                                 3724   CLINEA 0000H 0001H 04C0H 0001H 0001H
00:0000 CE-F8                    3725   	push	lr
                                 3726   CBLOCK 192 2 1216
                                 3727   CRET 0000H
                                 3728   
                                 3729   ;;	(void)i2c_continue();
                                 3730   CLINEA 0000H 0001H 04C1H 0002H 0016H
00:0002 01-F0'00-00'             3731   	bl	_i2c_continue
                                 3732   
                                 3733   ;;	main_reqNotHalt();
                                 3734   CLINEA 0000H 0001H 04C2H 0002H 0013H
00:0006 01-F0'00-00'             3735   	bl	_main_reqNotHalt
                                 3736   CBLOCKEND 192 2 1219
                                 3737   
                                 3738   ;;}
                                 3739   CLINEA 0000H 0001H 04C3H 0001H 0001H
00:000A 8E-F2                    3740   	pop	pc
                                 3741   CBLOCKEND 192 1 1219
                                 3742   CFUNCTIONEND 192
                                 3743   
                                 3744   
  --------------------------     3745   	rseg $$_intPB2$main
                                 3746   CFUNCTION 193
                                 3747   
00:0000                          3748   __intPB2	:
                                 3749   CBLOCK 193 1 1229
                                 3750   
                                 3751   ;;{
                                 3752   CLINEA 0000H 0001H 04CDH 0001H 0001H
                                 3753   CBLOCK 193 2 1229
                                 3754   
                                 3755   ;;	_flgPB2Int = 1;
                                 3756   CLINEA 0000H 0001H 04CEH 0002H 0010H
00:0000 01 00                    3757   	mov	r0,	#01h
00:0002 11-90 00-00'             3758   	st	r0,	NEAR __flgPB2Int
                                 3759   CBLOCKEND 193 2 1232
                                 3760   
                                 3761   ;;}
                                 3762   CLINEA 0000H 0001H 04D0H 0001H 0001H
00:0006 1F-FE                    3763   	rt
                                 3764   CBLOCKEND 193 1 1232
                                 3765   CFUNCTIONEND 193
                                 3766   
                                 3767   
  --------------------------     3768   	rseg $$checkI2C$main
                                 3769   CFUNCTION 189
                                 3770   
00:0000                          3771   _checkI2C	:
                                 3772   CBLOCK 189 1 1242
                                 3773   
                                 3774   ;;{
                                 3775   CLINEA 0000H 0001H 04DAH 0001H 0001H
00:0000 CE-F8                    3776   	push	lr
                                 3777   CBLOCK 189 2 1242
                                 3778   CRET 0000H
                                 3779   CLOCAL 47H 0002H 0024H 0002H "ret" 02H 00H 01H
                                 3780   
                                 3781   ;;	while (ret != 1) {
                                 3782   CLINEA 0000H 0000H 04DFH 0002H 0013H
00:0002                          3783   _$L241 :
                                 3784   CBLOCK 189 3 1247
                                 3785   
                                 3786   ;;		ret = i2c_continue();
                                 3787   CLINEA 0000H 0000H 04E0H 0003H 0017H
00:0002 01-F0'00-00'             3788   	bl	_i2c_continue
                                 3789   CBLOCK 189 4 1249
                                 3790   CBLOCKEND 189 4 1251
                                 3791   CBLOCKEND 189 3 1252
                                 3792   
                                 3793   ;;	while (ret != 1) {
                                 3794   CLINEA 0000H 0000H 04DFH 0008H 000CH
00:0006 01 70                    3795   	cmp	r0,	#01h
00:0008 00 51                    3796   	cmpc	r1,	#00h
00:000A FB C8                    3797   	bne	_$L241
                                 3798   CBLOCKEND 189 2 1253
                                 3799   
                                 3800   ;;}
                                 3801   CLINEA 0000H 0001H 04E5H 0001H 0001H
00:000C 8E-F2                    3802   	pop	pc
                                 3803   CBLOCKEND 189 1 1253
                                 3804   CFUNCTIONEND 189
                                 3805   
                                 3806   
  --------------------------     3807   	rseg $$main_reqNotHalt$main
                                 3808   CFUNCTION 190
                                 3809   
00:0000                          3810   _main_reqNotHalt	:
                                 3811   CBLOCK 190 1 1263
                                 3812   
                                 3813   ;;{
                                 3814   CLINEA 0000H 0001H 04EFH 0001H 0001H
                                 3815   CBLOCK 190 2 1263
                                 3816   
                                 3817   ;;	_reqNotHalt = (unsigned char)FLG_SET;
                                 3818   CLINEA 0000H 0001H 04F0H 0002H 0026H
00:0000 01 00                    3819   	mov	r0,	#01h
00:0002 11-90 00-00'             3820   	st	r0,	NEAR __reqNotHalt
                                 3821   CBLOCKEND 190 2 1265
                                 3822   
                                 3823   ;;}
                                 3824   CLINEA 0000H 0001H 04F1H 0001H 0001H
00:0006 1F-FE                    3825   	rt
                                 3826   CBLOCKEND 190 1 1265
                                 3827   CFUNCTIONEND 190
                                 3828   
                                 3829   
  --------------------------     3830   	rseg $$_intUart$main
                                 3831   CFUNCTION 191
                                 3832   
00:0000                          3833   __intUart	:
                                 3834   CBLOCK 191 1 1275
                                 3835   
                                 3836   ;;{
                                 3837   CLINEA 0000H 0001H 04FBH 0001H 0001H
                                 3838   CBLOCK 191 2 1275
                                 3839   
                                 3840   ;;		uart_continue(); //in UART.c: process to continue send and receive...
                                 3841   CLINEA 0000H 0001H 04FCH 0003H 0047H
00:0000 00-F0'00-00'             3842   	b	_uart_continue
                                 3843   CBLOCKEND 191 2 1277
                                 3844   CLINEA 0000H 0001H 04FDH 0001H 0001H
                                 3845   CBLOCKEND 191 1 1277
                                 3846   CFUNCTIONEND 191
                                 3847   
                                 3848   
  --------------------------     3849   	rseg $$SetOSC$main
                                 3850   CFUNCTION 179
                                 3851   
00:0000                          3852   _SetOSC	:
                                 3853   CBLOCK 179 1 1282
                                 3854   
                                 3855   ;;static void SetOSC(void){
                                 3856   CLINEA 0000H 0001H 0502H 0001H 0019H
                                 3857   CBLOCK 179 2 1282
                                 3858   
                                 3859   ;;		SYSC0  = 0;			// Used to select the frequency of the HSCLK => 00=8.192MHz.
                                 3860   CLINEA 0000H 0001H 0505H 0003H 004CH
00:0000 82-A0 02-F0              3861   	rb	0f002h.0
                                 3862   
                                 3863   ;;		SYSC1  = 0;			//...
                                 3864   CLINEA 0000H 0001H 0506H 0003H 0015H
00:0004 92-A0 02-F0              3865   	rb	0f002h.1
                                 3866   
                                 3867   ;;		OSCM1  = 1;			// 10 => Built-in PLL oscillation mode
                                 3868   CLINEA 0000H 0001H 0507H 0003H 0036H
00:0008 B0-A0 02-F0              3869   	sb	0f002h.3
                                 3870   
                                 3871   ;;		OSCM0  = 0;			//...
                                 3872   CLINEA 0000H 0001H 0508H 0003H 0015H
00:000C A2-A0 02-F0              3873   	rb	0f002h.2
                                 3874   
                                 3875   ;;		ENOSC  = 1;			// 1=Enable High Speed Oscillator...
                                 3876   CLINEA 0000H 0001H 050BH 0003H 0034H
00:0010 90-A0 03-F0              3877   	sb	0f003h.1
                                 3878   
                                 3879   ;;		SYSCLK = 1;			// Select System Clock: 1=HSCLK; 0=LSCLK 
                                 3880   CLINEA 0000H 0001H 050CH 0003H 0039H
00:0014 80-A0 03-F0              3881   	sb	0f003h.0
                                 3882   
                                 3883   ;;		LPLL   = 1;			// 1=Enables the use of PLL oscillation - ADDED 4/30/2013
                                 3884   CLINEA 0000H 0001H 050DH 0003H 0049H
00:0018 F0-A0 03-F0              3885   	sb	0f003h.7
                                 3886   
                                 3887   ;;	__EI();					//INT enable 
                                 3888   CLINEA 0000H 0001H 050FH 0002H 001AH
00:001C 08-ED                    3889   	ei
                                 3890   CBLOCKEND 179 2 1296
                                 3891   
                                 3892   ;;}
                                 3893   CLINEA 0000H 0001H 0510H 0001H 0001H
00:001E 1F-FE                    3894   	rt
                                 3895   CBLOCKEND 179 1 1296
                                 3896   CFUNCTIONEND 179
                                 3897   
                                 3898   
  --------------------------     3899   	rseg $$analog_comparator$main
                                 3900   CFUNCTION 230
                                 3901   
00:0000                          3902   _analog_comparator	:
                                 3903   CBLOCK 230 1 1303
                                 3904   
                                 3905   ;;void analog_comparator(void){
                                 3906   CLINEA 0000H 0001H 0517H 0001H 001DH
                                 3907   CBLOCK 230 2 1303
                                 3908   
                                 3909   ;;	CMP0EN  = 0x01; 	// Comparator ON...
                                 3910   CLINEA 0000H 0001H 052DH 0002H 0025H
00:0000 80-A0 50-F9              3911   	sb	0f950h.0
                                 3912   
                                 3913   ;;	CMP0E1  = 0x00; 	// No Interupt...
                                 3914   CLINEA 0000H 0001H 052EH 0002H 0023H
00:0004 92-A0 51-F9              3915   	rb	0f951h.1
                                 3916   
                                 3917   ;;	CMP0E0  = 0x00;
                                 3918   CLINEA 0000H 0001H 052FH 0002H 0010H
00:0008 82-A0 51-F9              3919   	rb	0f951h.0
                                 3920   
                                 3921   ;;	CMP0SM1 = 0x00; 	// Detect without Sampling... 
                                 3922   CLINEA 0000H 0001H 0530H 0002H 0030H
00:000C B2-A0 51-F9              3923   	rb	0f951h.3
                                 3924   
                                 3925   ;;	CMP0RFS = 0x01; 	// Differential Input on B5
                                 3926   CLINEA 0000H 0001H 0531H 0002H 002DH
00:0010 C0-A0 51-F9              3927   	sb	0f951h.4
                                 3928   
                                 3929   ;;	CMP0EN  = 0x00;
                                 3930   CLINEA 0000H 0001H 0534H 0002H 0010H
00:0014 82-A0 50-F9              3931   	rb	0f950h.0
                                 3932   CBLOCKEND 230 2 1335
                                 3933   
                                 3934   ;;}
                                 3935   CLINEA 0000H 0001H 0537H 0001H 0001H
00:0018 1F-FE                    3936   	rt
                                 3937   CBLOCKEND 230 1 1335
                                 3938   CFUNCTIONEND 230
                                 3939   
                                 3940   
  --------------------------     3941   	rseg $$PortA_Low$main
                                 3942   CFUNCTION 180
                                 3943   
00:0000                          3944   _PortA_Low	:
                                 3945   CBLOCK 180 1 1343
                                 3946   
                                 3947   ;;void PortA_Low(void){
                                 3948   CLINEA 0000H 0001H 053FH 0001H 0015H
                                 3949   CBLOCK 180 2 1343
                                 3950   
                                 3951   ;;	PA0DIR = 0;		// PortA Bit0 set to Output Mode...
                                 3952   CLINEA 0000H 0001H 0549H 0002H 0031H
00:0000 82-A0 51-F2              3953   	rb	0f251h.0
                                 3954   
                                 3955   ;;	PA1DIR = 0;		// PortA Bit1 set to Output Mode...
                                 3956   CLINEA 0000H 0001H 054AH 0002H 0031H
00:0004 92-A0 51-F2              3957   	rb	0f251h.1
                                 3958   
                                 3959   ;;	PA2DIR = 0;		// PortA Bit2 set to Output Mode...
                                 3960   CLINEA 0000H 0001H 054BH 0002H 0031H
00:0008 A2-A0 51-F2              3961   	rb	0f251h.2
                                 3962   
                                 3963   ;;	PA0C1  = 1;		// PortA Bit0 set to CMOS Output...
                                 3964   CLINEA 0000H 0001H 054EH 0002H 0031H
00:000C 80-A0 53-F2              3965   	sb	0f253h.0
                                 3966   
                                 3967   ;;	PA0C0  = 1;		
                                 3968   CLINEA 0000H 0001H 054FH 0002H 000EH
00:0010 80-A0 52-F2              3969   	sb	0f252h.0
                                 3970   
                                 3971   ;;	PA1C1  = 1;		// PortA Bit1 set to CMOS Output...
                                 3972   CLINEA 0000H 0001H 0550H 0002H 0031H
00:0014 90-A0 53-F2              3973   	sb	0f253h.1
                                 3974   
                                 3975   ;;	PA1C0  = 1;	
                                 3976   CLINEA 0000H 0001H 0551H 0002H 000DH
00:0018 90-A0 52-F2              3977   	sb	0f252h.1
                                 3978   
                                 3979   ;;	PA2C1  = 1;		// PortA Bit2 set to CMOS Output...
                                 3980   CLINEA 0000H 0001H 0552H 0002H 0031H
00:001C A0-A0 53-F2              3981   	sb	0f253h.2
                                 3982   
                                 3983   ;;	PA2C0  = 1;	
                                 3984   CLINEA 0000H 0001H 0553H 0002H 000DH
00:0020 A0-A0 52-F2              3985   	sb	0f252h.2
                                 3986   
                                 3987   ;;	PA0MD1  = 0;	// PortA Bit0 set to General Purpose Output...
                                 3988   CLINEA 0000H 0001H 0556H 0002H 003CH
00:0024 82-A0 55-F2              3989   	rb	0f255h.0
                                 3990   
                                 3991   ;;	PA0MD0  = 0;	
                                 3992   CLINEA 0000H 0001H 0557H 0002H 000EH
00:0028 82-A0 54-F2              3993   	rb	0f254h.0
                                 3994   
                                 3995   ;;	PA1MD1  = 0;	// PortA Bit1 set to General Purpose Output...
                                 3996   CLINEA 0000H 0001H 0558H 0002H 003CH
00:002C 92-A0 55-F2              3997   	rb	0f255h.1
                                 3998   
                                 3999   ;;	PA1MD0  = 0;	
                                 4000   CLINEA 0000H 0001H 0559H 0002H 000EH
00:0030 92-A0 54-F2              4001   	rb	0f254h.1
                                 4002   
                                 4003   ;;	PA2MD1  = 0;	// PortA Bit2 set to General Purpose Output...
                                 4004   CLINEA 0000H 0001H 055AH 0002H 003CH
00:0034 A2-A0 55-F2              4005   	rb	0f255h.2
                                 4006   
                                 4007   ;;	PA2MD0  = 0;	
                                 4008   CLINEA 0000H 0001H 055BH 0002H 000EH
00:0038 A2-A0 54-F2              4009   	rb	0f254h.2
                                 4010   
                                 4011   ;;	PA0D = 0;		// A.0 Output OFF....
                                 4012   CLINEA 0000H 0001H 055EH 0002H 0021H
00:003C 82-A0 50-F2              4013   	rb	0f250h.0
                                 4014   
                                 4015   ;;	PA1D = 0;		// A.1 Output OFF....
                                 4016   CLINEA 0000H 0001H 055FH 0002H 0021H
00:0040 92-A0 50-F2              4017   	rb	0f250h.1
                                 4018   
                                 4019   ;;	PA2D = 0;		// A.2 Output OFF....
                                 4020   CLINEA 0000H 0001H 0560H 0002H 0021H
00:0044 A2-A0 50-F2              4021   	rb	0f250h.2
                                 4022   
                                 4023   ;;	main_clrWDT(); 	// Clear WDT
                                 4024   CLINEA 0000H 0001H 0562H 0002H 001DH
00:0048 00-F0'00-00'             4025   	b	_main_clrWDT
                                 4026   CBLOCKEND 180 2 1380
                                 4027   CLINEA 0000H 0001H 0564H 0001H 0001H
                                 4028   CBLOCKEND 180 1 1380
                                 4029   CFUNCTIONEND 180
                                 4030   
                                 4031   
  --------------------------     4032   	rseg $$PortB_Low$main
                                 4033   CFUNCTION 181
                                 4034   
00:0000                          4035   _PortB_Low	:
                                 4036   CBLOCK 181 1 1386
                                 4037   
                                 4038   ;;void PortB_Low(void){
                                 4039   CLINEA 0000H 0001H 056AH 0001H 0015H
                                 4040   CBLOCK 181 2 1386
                                 4041   
                                 4042   ;;	PB0DIR = 0;		// PortB Bit0 set to Output Mode...
                                 4043   CLINEA 0000H 0001H 0574H 0002H 0031H
00:0000 82-A0 59-F2              4044   	rb	0f259h.0
                                 4045   
                                 4046   ;;	PB1DIR = 0;		// PortB Bit1 set to Output Mode...
                                 4047   CLINEA 0000H 0001H 0575H 0002H 0031H
00:0004 92-A0 59-F2              4048   	rb	0f259h.1
                                 4049   
                                 4050   ;;	PB2DIR = 0;		// PortB Bit2 set to Output Mode...
                                 4051   CLINEA 0000H 0001H 0576H 0002H 0031H
00:0008 A2-A0 59-F2              4052   	rb	0f259h.2
                                 4053   
                                 4054   ;;	PB3DIR = 0;		// PortB Bit3 set to Output Mode...
                                 4055   CLINEA 0000H 0001H 0577H 0002H 0031H
00:000C B2-A0 59-F2              4056   	rb	0f259h.3
                                 4057   
                                 4058   ;;	PB4DIR = 0;		// PortB Bit4 set to Output Mode...
                                 4059   CLINEA 0000H 0001H 0578H 0002H 0031H
00:0010 C2-A0 59-F2              4060   	rb	0f259h.4
                                 4061   
                                 4062   ;;	PB5DIR = 0;		// PortB Bit5 set to Output Mode...
                                 4063   CLINEA 0000H 0001H 0579H 0002H 0031H
00:0014 D2-A0 59-F2              4064   	rb	0f259h.5
                                 4065   
                                 4066   ;;	PB6DIR = 0;		// PortB Bit6 set to Output Mode...
                                 4067   CLINEA 0000H 0001H 057AH 0002H 0031H
00:0018 E2-A0 59-F2              4068   	rb	0f259h.6
                                 4069   
                                 4070   ;;	PB7DIR = 0;		// PortB Bit7 set to Output Mode...
                                 4071   CLINEA 0000H 0001H 057BH 0002H 0031H
00:001C F2-A0 59-F2              4072   	rb	0f259h.7
                                 4073   
                                 4074   ;;	PB0C1  = 1;		// PortB Bit0 set to CMOS Output...
                                 4075   CLINEA 0000H 0001H 057EH 0002H 0031H
00:0020 80-A0 5B-F2              4076   	sb	0f25bh.0
                                 4077   
                                 4078   ;;	PB0C0  = 1;		
                                 4079   CLINEA 0000H 0001H 057FH 0002H 000EH
00:0024 80-A0 5A-F2              4080   	sb	0f25ah.0
                                 4081   
                                 4082   ;;	PB1C1  = 1;		// PortB Bit1 set to CMOS Output...
                                 4083   CLINEA 0000H 0001H 0580H 0002H 0031H
00:0028 90-A0 5B-F2              4084   	sb	0f25bh.1
                                 4085   
                                 4086   ;;	PB1C0  = 1;	
                                 4087   CLINEA 0000H 0001H 0581H 0002H 000DH
00:002C 90-A0 5A-F2              4088   	sb	0f25ah.1
                                 4089   
                                 4090   ;;	PB2C1  = 1;		// PortB Bit2 set to CMOS Output...
                                 4091   CLINEA 0000H 0001H 0582H 0002H 0031H
00:0030 A0-A0 5B-F2              4092   	sb	0f25bh.2
                                 4093   
                                 4094   ;;	PB2C0  = 1;	
                                 4095   CLINEA 0000H 0001H 0583H 0002H 000DH
00:0034 A0-A0 5A-F2              4096   	sb	0f25ah.2
                                 4097   
                                 4098   ;;	PB3C1  = 1;		// PortB Bit3 set to CMOS Output...
                                 4099   CLINEA 0000H 0001H 0584H 0002H 0031H
00:0038 B0-A0 5B-F2              4100   	sb	0f25bh.3
                                 4101   
                                 4102   ;;	PB3C0  = 1;		
                                 4103   CLINEA 0000H 0001H 0585H 0002H 000EH
00:003C B0-A0 5A-F2              4104   	sb	0f25ah.3
                                 4105   
                                 4106   ;;	PB4C1  = 1;		// PortB Bit4 set to CMOS Output...
                                 4107   CLINEA 0000H 0001H 0586H 0002H 0031H
00:0040 C0-A0 5B-F2              4108   	sb	0f25bh.4
                                 4109   
                                 4110   ;;	PB4C0  = 1;	
                                 4111   CLINEA 0000H 0001H 0587H 0002H 000DH
00:0044 C0-A0 5A-F2              4112   	sb	0f25ah.4
                                 4113   
                                 4114   ;;	PB5C1  = 1;		// PortB Bit5 set to CMOS Output...
                                 4115   CLINEA 0000H 0001H 0588H 0002H 0031H
00:0048 D0-A0 5B-F2              4116   	sb	0f25bh.5
                                 4117   
                                 4118   ;;	PB5C0  = 1;	
                                 4119   CLINEA 0000H 0001H 0589H 0002H 000DH
00:004C D0-A0 5A-F2              4120   	sb	0f25ah.5
                                 4121   
                                 4122   ;;	PB6C1  = 1;		// PortB Bit6 set to CMOS Output...
                                 4123   CLINEA 0000H 0001H 058AH 0002H 0031H
00:0050 E0-A0 5B-F2              4124   	sb	0f25bh.6
                                 4125   
                                 4126   ;;	PB6C0  = 1;	
                                 4127   CLINEA 0000H 0001H 058BH 0002H 000DH
00:0054 E0-A0 5A-F2              4128   	sb	0f25ah.6
                                 4129   
                                 4130   ;;	PB7C1  = 1;		// PortB Bit7 set to CMOS Output...
                                 4131   CLINEA 0000H 0001H 058CH 0002H 0031H
00:0058 F0-A0 5B-F2              4132   	sb	0f25bh.7
                                 4133   
                                 4134   ;;	PB7C0  = 1;	
                                 4135   CLINEA 0000H 0001H 058DH 0002H 000DH
00:005C F0-A0 5A-F2              4136   	sb	0f25ah.7
                                 4137   
                                 4138   ;;	PB0MD1  = 0;	// PortB Bit0 set to General Purpose Output...
                                 4139   CLINEA 0000H 0001H 0590H 0002H 003CH
00:0060 82-A0 5D-F2              4140   	rb	0f25dh.0
                                 4141   
                                 4142   ;;	PB0MD0  = 0;	
                                 4143   CLINEA 0000H 0001H 0591H 0002H 000EH
00:0064 82-A0 5C-F2              4144   	rb	0f25ch.0
                                 4145   
                                 4146   ;;	PB1MD1  = 0;	// PortB Bit1 set to General Purpose Output...
                                 4147   CLINEA 0000H 0001H 0592H 0002H 003CH
00:0068 92-A0 5D-F2              4148   	rb	0f25dh.1
                                 4149   
                                 4150   ;;	PB1MD0  = 0;	
                                 4151   CLINEA 0000H 0001H 0593H 0002H 000EH
00:006C 92-A0 5C-F2              4152   	rb	0f25ch.1
                                 4153   
                                 4154   ;;	PB2MD1  = 0;	// PortB Bit2 set to General Purpose Output...
                                 4155   CLINEA 0000H 0001H 0594H 0002H 003CH
00:0070 A2-A0 5D-F2              4156   	rb	0f25dh.2
                                 4157   
                                 4158   ;;	PB2MD0  = 0;	
                                 4159   CLINEA 0000H 0001H 0595H 0002H 000EH
00:0074 A2-A0 5C-F2              4160   	rb	0f25ch.2
                                 4161   
                                 4162   ;;	PB3MD1  = 0;	// PortB Bit3 set to General Purpose Output...
                                 4163   CLINEA 0000H 0001H 0596H 0002H 003CH
00:0078 B2-A0 5D-F2              4164   	rb	0f25dh.3
                                 4165   
                                 4166   ;;	PB3MD0  = 0;	
                                 4167   CLINEA 0000H 0001H 0597H 0002H 000EH
00:007C B2-A0 5C-F2              4168   	rb	0f25ch.3
                                 4169   
                                 4170   ;;	PB4MD1  = 0;	// PortB Bit4 set to General Purpose Output...
                                 4171   CLINEA 0000H 0001H 0598H 0002H 003CH
00:0080 C2-A0 5D-F2              4172   	rb	0f25dh.4
                                 4173   
                                 4174   ;;	PB4MD0  = 0;	
                                 4175   CLINEA 0000H 0001H 0599H 0002H 000EH
00:0084 C2-A0 5C-F2              4176   	rb	0f25ch.4
                                 4177   
                                 4178   ;;	PB5MD1  = 0;	// PortB Bit5 set to General Purpose Output...
                                 4179   CLINEA 0000H 0001H 059AH 0002H 003CH
00:0088 D2-A0 5D-F2              4180   	rb	0f25dh.5
                                 4181   
                                 4182   ;;	PB5MD0  = 0;
                                 4183   CLINEA 0000H 0001H 059BH 0002H 000DH
00:008C D2-A0 5C-F2              4184   	rb	0f25ch.5
                                 4185   
                                 4186   ;;	PB6MD1  = 0;	// PortB Bit6 set to General Purpose Output...
                                 4187   CLINEA 0000H 0001H 059CH 0002H 003CH
00:0090 E2-A0 5D-F2              4188   	rb	0f25dh.6
                                 4189   
                                 4190   ;;	PB6MD0  = 0;	
                                 4191   CLINEA 0000H 0001H 059DH 0002H 000EH
00:0094 E2-A0 5C-F2              4192   	rb	0f25ch.6
                                 4193   
                                 4194   ;;	PB7MD1  = 0;	// PortB Bit7 set to General Purpose Output...
                                 4195   CLINEA 0000H 0001H 059EH 0002H 003CH
00:0098 F2-A0 5D-F2              4196   	rb	0f25dh.7
                                 4197   
                                 4198   ;;	PB7MD0  = 0;
                                 4199   CLINEA 0000H 0001H 059FH 0002H 000DH
00:009C F2-A0 5C-F2              4200   	rb	0f25ch.7
                                 4201   
                                 4202   ;;	PB0D = 0;		// B.0 Output OFF....
                                 4203   CLINEA 0000H 0001H 05A2H 0002H 0021H
00:00A0 82-A0 58-F2              4204   	rb	0f258h.0
                                 4205   
                                 4206   ;;	PB1D = 0;		// B.1 Output OFF....
                                 4207   CLINEA 0000H 0001H 05A3H 0002H 0021H
00:00A4 92-A0 58-F2              4208   	rb	0f258h.1
                                 4209   
                                 4210   ;;	PB2D = 0;		// B.2 Output OFF....
                                 4211   CLINEA 0000H 0001H 05A4H 0002H 0021H
00:00A8 A2-A0 58-F2              4212   	rb	0f258h.2
                                 4213   
                                 4214   ;;	PB3D = 0;		// B.3 Output OFF....
                                 4215   CLINEA 0000H 0001H 05A5H 0002H 0021H
00:00AC B2-A0 58-F2              4216   	rb	0f258h.3
                                 4217   
                                 4218   ;;	PB4D = 0;		// B.4 Output OFF....
                                 4219   CLINEA 0000H 0001H 05A6H 0002H 0021H
00:00B0 C2-A0 58-F2              4220   	rb	0f258h.4
                                 4221   
                                 4222   ;;	PB5D = 0;		// B.5 Output OFF....
                                 4223   CLINEA 0000H 0001H 05A7H 0002H 0021H
00:00B4 D2-A0 58-F2              4224   	rb	0f258h.5
                                 4225   
                                 4226   ;;	PB6D = 0;		// B.6 Output OFF....
                                 4227   CLINEA 0000H 0001H 05A8H 0002H 0021H
00:00B8 E2-A0 58-F2              4228   	rb	0f258h.6
                                 4229   
                                 4230   ;;	PB7D = 0;		// B.7 Output OFF....
                                 4231   CLINEA 0000H 0001H 05A9H 0002H 0021H
00:00BC F2-A0 58-F2              4232   	rb	0f258h.7
                                 4233   
                                 4234   ;;	main_clrWDT(); 	// Clear WDT
                                 4235   CLINEA 0000H 0001H 05ABH 0002H 001DH
00:00C0 00-F0'00-00'             4236   	b	_main_clrWDT
                                 4237   CBLOCKEND 181 2 1453
                                 4238   CLINEA 0000H 0001H 05ADH 0001H 0001H
                                 4239   CBLOCKEND 181 1 1453
                                 4240   CFUNCTIONEND 181
                                 4241   
                                 4242   
  --------------------------     4243   	rseg $$PortC_Low$main
                                 4244   CFUNCTION 182
                                 4245   
00:0000                          4246   _PortC_Low	:
                                 4247   CBLOCK 182 1 1459
                                 4248   
                                 4249   ;;void PortC_Low(void){
                                 4250   CLINEA 0000H 0001H 05B3H 0001H 0015H
                                 4251   CBLOCK 182 2 1459
                                 4252   
                                 4253   ;;	PC0DIR = 0;		// PortC Bit0 set to Output Mode...
                                 4254   CLINEA 0000H 0001H 05BDH 0002H 0031H
00:0000 82-A0 61-F2              4255   	rb	0f261h.0
                                 4256   
                                 4257   ;;	PC1DIR = 0;		// PortC Bit1 set to Output Mode...
                                 4258   CLINEA 0000H 0001H 05BEH 0002H 0031H
00:0004 92-A0 61-F2              4259   	rb	0f261h.1
                                 4260   
                                 4261   ;;	PC2DIR = 0;		// PortC Bit2 set to Output Mode...
                                 4262   CLINEA 0000H 0001H 05BFH 0002H 0031H
00:0008 A2-A0 61-F2              4263   	rb	0f261h.2
                                 4264   
                                 4265   ;;	PC3DIR = 0;		// PortC Bit3 set to Output Mode...
                                 4266   CLINEA 0000H 0001H 05C0H 0002H 0031H
00:000C B2-A0 61-F2              4267   	rb	0f261h.3
                                 4268   
                                 4269   ;;	PC0C1  = 1;		// PortC Bit0 set to CMOS Output...
                                 4270   CLINEA 0000H 0001H 05C4H 0002H 0031H
00:0010 80-A0 63-F2              4271   	sb	0f263h.0
                                 4272   
                                 4273   ;;	PC0C0  = 1;		
                                 4274   CLINEA 0000H 0001H 05C5H 0002H 000EH
00:0014 80-A0 62-F2              4275   	sb	0f262h.0
                                 4276   
                                 4277   ;;	PC1C1  = 1;		// PortC Bit1 set to CMOS Output...
                                 4278   CLINEA 0000H 0001H 05C6H 0002H 0031H
00:0018 90-A0 63-F2              4279   	sb	0f263h.1
                                 4280   
                                 4281   ;;	PC1C0  = 1;	
                                 4282   CLINEA 0000H 0001H 05C7H 0002H 000DH
00:001C 90-A0 62-F2              4283   	sb	0f262h.1
                                 4284   
                                 4285   ;;	PC2C1  = 1;		// PortC Bit2 set to CMOS Output...
                                 4286   CLINEA 0000H 0001H 05C8H 0002H 0031H
00:0020 A0-A0 63-F2              4287   	sb	0f263h.2
                                 4288   
                                 4289   ;;	PC2C0  = 1;	
                                 4290   CLINEA 0000H 0001H 05C9H 0002H 000DH
00:0024 A0-A0 62-F2              4291   	sb	0f262h.2
                                 4292   
                                 4293   ;;	PC3C1  = 1;		// PortC Bit3 set to CMOS Output...
                                 4294   CLINEA 0000H 0001H 05CAH 0002H 0031H
00:0028 B0-A0 63-F2              4295   	sb	0f263h.3
                                 4296   
                                 4297   ;;	PC3C0  = 1;		
                                 4298   CLINEA 0000H 0001H 05CBH 0002H 000EH
00:002C B0-A0 62-F2              4299   	sb	0f262h.3
                                 4300   
                                 4301   ;;	PC0MD1  = 0;	// PortC Bit0 set to General Purpose Output...
                                 4302   CLINEA 0000H 0001H 05CEH 0002H 003CH
00:0030 82-A0 65-F2              4303   	rb	0f265h.0
                                 4304   
                                 4305   ;;	PC0MD0  = 0;	
                                 4306   CLINEA 0000H 0001H 05CFH 0002H 000EH
00:0034 82-A0 64-F2              4307   	rb	0f264h.0
                                 4308   
                                 4309   ;;	PC1MD1  = 0;	// PortC Bit1 set to General Purpose Output...
                                 4310   CLINEA 0000H 0001H 05D0H 0002H 003CH
00:0038 92-A0 65-F2              4311   	rb	0f265h.1
                                 4312   
                                 4313   ;;	PC1MD0  = 0;	
                                 4314   CLINEA 0000H 0001H 05D1H 0002H 000EH
00:003C 92-A0 64-F2              4315   	rb	0f264h.1
                                 4316   
                                 4317   ;;	PC2MD1  = 0;	// PortC Bit2 set to General Purpose Output...
                                 4318   CLINEA 0000H 0001H 05D2H 0002H 003CH
00:0040 A2-A0 65-F2              4319   	rb	0f265h.2
                                 4320   
                                 4321   ;;	PC2MD0  = 0;	
                                 4322   CLINEA 0000H 0001H 05D3H 0002H 000EH
00:0044 A2-A0 64-F2              4323   	rb	0f264h.2
                                 4324   
                                 4325   ;;	PC3MD1  = 0;	// PortC Bit3 set to General Purpose Output...
                                 4326   CLINEA 0000H 0001H 05D4H 0002H 003CH
00:0048 B2-A0 65-F2              4327   	rb	0f265h.3
                                 4328   
                                 4329   ;;	PC3MD0  = 0;	
                                 4330   CLINEA 0000H 0001H 05D5H 0002H 000EH
00:004C B2-A0 64-F2              4331   	rb	0f264h.3
                                 4332   
                                 4333   ;;	PC0D = 0;		// C.0 Output OFF....
                                 4334   CLINEA 0000H 0001H 05D8H 0002H 0021H
00:0050 82-A0 60-F2              4335   	rb	0f260h.0
                                 4336   
                                 4337   ;;	PC1D = 0;		// C.1 Output OFF....
                                 4338   CLINEA 0000H 0001H 05D9H 0002H 0021H
00:0054 92-A0 60-F2              4339   	rb	0f260h.1
                                 4340   
                                 4341   ;;	PC2D = 0;		// C.2 Output OFF....
                                 4342   CLINEA 0000H 0001H 05DAH 0002H 0021H
00:0058 A2-A0 60-F2              4343   	rb	0f260h.2
                                 4344   
                                 4345   ;;	PC3D = 0;		// C.3 Output OFF....
                                 4346   CLINEA 0000H 0001H 05DBH 0002H 0021H
00:005C B2-A0 60-F2              4347   	rb	0f260h.3
                                 4348   
                                 4349   ;;	main_clrWDT(); 	// Clear WDT
                                 4350   CLINEA 0000H 0001H 05DDH 0002H 001DH
00:0060 00-F0'00-00'             4351   	b	_main_clrWDT
                                 4352   CBLOCKEND 182 2 1503
                                 4353   CLINEA 0000H 0001H 05DFH 0001H 0001H
                                 4354   CBLOCKEND 182 1 1503
                                 4355   CFUNCTIONEND 182
                                 4356   
                                 4357   
  --------------------------     4358   	rseg $$PortA_Digital_Inputs$main
                                 4359   CFUNCTION 234
                                 4360   
00:0000                          4361   _PortA_Digital_Inputs	:
                                 4362   CBLOCK 234 1 1509
                                 4363   
                                 4364   ;;void PortA_Digital_Inputs(void){
                                 4365   CLINEA 0000H 0001H 05E5H 0001H 0020H
                                 4366   CBLOCK 234 2 1509
                                 4367   
                                 4368   ;;	PA0DIR = 1;		// PortA Bit0 set to Input Mode...
                                 4369   CLINEA 0000H 0001H 05EFH 0002H 0030H
00:0000 80-A0 51-F2              4370   	sb	0f251h.0
                                 4371   
                                 4372   ;;	PA1DIR = 1;		// PortA Bit1 set to Input Mode...
                                 4373   CLINEA 0000H 0001H 05F0H 0002H 0030H
00:0004 90-A0 51-F2              4374   	sb	0f251h.1
                                 4375   
                                 4376   ;;	PA2DIR = 1;		// PortA Bit2 set to Input Mode...
                                 4377   CLINEA 0000H 0001H 05F1H 0002H 0030H
00:0008 A0-A0 51-F2              4378   	sb	0f251h.2
                                 4379   
                                 4380   ;;	PA0C1  = 1;		// PortA Bit0 set to Input with Pull-Up Resistor...
                                 4381   CLINEA 0000H 0001H 05F5H 0002H 0041H
00:000C 80-A0 53-F2              4382   	sb	0f253h.0
                                 4383   
                                 4384   ;;	PA0C0  = 0;		
                                 4385   CLINEA 0000H 0001H 05F6H 0002H 000EH
00:0010 82-A0 52-F2              4386   	rb	0f252h.0
                                 4387   
                                 4388   ;;	PA1C1  = 1;		// PortA Bit1 set to Input with Pull-Up Resistor...
                                 4389   CLINEA 0000H 0001H 05F7H 0002H 0041H
00:0014 90-A0 53-F2              4390   	sb	0f253h.1
                                 4391   
                                 4392   ;;	PA1C0  = 0;	
                                 4393   CLINEA 0000H 0001H 05F8H 0002H 000DH
00:0018 92-A0 52-F2              4394   	rb	0f252h.1
                                 4395   
                                 4396   ;;	PA2C1  = 1;		// PortA Bit2 set to Input with Pull-Up Resistor...
                                 4397   CLINEA 0000H 0001H 05F9H 0002H 0041H
00:001C A0-A0 53-F2              4398   	sb	0f253h.2
                                 4399   
                                 4400   ;;	PA2C0  = 0;	
                                 4401   CLINEA 0000H 0001H 05FAH 0002H 000DH
00:0020 A2-A0 52-F2              4402   	rb	0f252h.2
                                 4403   
                                 4404   ;;	PA0MD1  = 0;	// PortA Bit0 set to General Purpose I/O...
                                 4405   CLINEA 0000H 0001H 05FDH 0002H 0039H
00:0024 82-A0 55-F2              4406   	rb	0f255h.0
                                 4407   
                                 4408   ;;	PA0MD0  = 0;	
                                 4409   CLINEA 0000H 0001H 05FEH 0002H 000EH
00:0028 82-A0 54-F2              4410   	rb	0f254h.0
                                 4411   
                                 4412   ;;	PA1MD1  = 0;	// PortA Bit1 set to General Purpose I/O...
                                 4413   CLINEA 0000H 0001H 05FFH 0002H 0039H
00:002C 92-A0 55-F2              4414   	rb	0f255h.1
                                 4415   
                                 4416   ;;	PA1MD0  = 0;	
                                 4417   CLINEA 0000H 0001H 0600H 0002H 000EH
00:0030 92-A0 54-F2              4418   	rb	0f254h.1
                                 4419   
                                 4420   ;;	PA2MD1  = 0;	// PortA Bit2 set to General Purpose I/O...
                                 4421   CLINEA 0000H 0001H 0601H 0002H 0039H
00:0034 A2-A0 55-F2              4422   	rb	0f255h.2
                                 4423   
                                 4424   ;;	PA2MD0  = 0;	
                                 4425   CLINEA 0000H 0001H 0602H 0002H 000EH
00:0038 A2-A0 54-F2              4426   	rb	0f254h.2
                                 4427   
                                 4428   ;;	main_clrWDT(); 	// Clear WDT
                                 4429   CLINEA 0000H 0001H 0604H 0002H 001DH
00:003C 00-F0'00-00'             4430   	b	_main_clrWDT
                                 4431   CBLOCKEND 234 2 1542
                                 4432   CLINEA 0000H 0001H 0606H 0001H 0001H
                                 4433   CBLOCKEND 234 1 1542
                                 4434   CFUNCTIONEND 234
                                 4435   
                                 4436   
  --------------------------     4437   	rseg $$PinB0_PWM$main
                                 4438   CFUNCTION 235
                                 4439   
00:0000                          4440   _PinB0_PWM	:
                                 4441   CBLOCK 235 1 1550
                                 4442   
                                 4443   ;;void PinB0_PWM(void){
                                 4444   CLINEA 0000H 0001H 060EH 0001H 0015H
                                 4445   CBLOCK 235 2 1550
                                 4446   
                                 4447   ;;	PB0DIR = 0;		// PortB Bit0 set to Output Mode...
                                 4448   CLINEA 0000H 0001H 061AH 0002H 0031H
00:0000 82-A0 59-F2              4449   	rb	0f259h.0
                                 4450   
                                 4451   ;;	PB0C1  = 1;		// PortB Bit0 set to CMOS Output...
                                 4452   CLINEA 0000H 0001H 061DH 0002H 0031H
00:0004 80-A0 5B-F2              4453   	sb	0f25bh.0
                                 4454   
                                 4455   ;;	PB0C0  = 1;		
                                 4456   CLINEA 0000H 0001H 061EH 0002H 000EH
00:0008 80-A0 5A-F2              4457   	sb	0f25ah.0
                                 4458   
                                 4459   ;;	PB0MD1  = 0;	// PortB Bit0 set to PWM Output (0,1)...
                                 4460   CLINEA 0000H 0001H 0621H 0002H 0036H
00:000C 82-A0 5D-F2              4461   	rb	0f25dh.0
                                 4462   
                                 4463   ;;	PB0MD0  = 1;	
                                 4464   CLINEA 0000H 0001H 0622H 0002H 000EH
00:0010 80-A0 5C-F2              4465   	sb	0f25ch.0
                                 4466   
                                 4467   ;;	PCCS1 = 0;	//00= LS; 01=HS; 10=PLL
                                 4468   CLINEA 0000H 0001H 0626H 0002H 0023H
00:0014 92-A0 16-F9              4469   	rb	0f916h.1
                                 4470   
                                 4471   ;;	PCCS0 = 1;
                                 4472   CLINEA 0000H 0001H 0627H 0002H 000BH
00:0018 80-A0 16-F9              4473   	sb	0f916h.0
                                 4474   
                                 4475   ;;	PWCP = 4250;		// Init Period to (1=255kHz; 10=46kHz; 50=10kHz; 200=2.5kH; ; 3185 = 160Hz; 3400=150Hz; 4250=120Hz; 5000=102Hz)
                                 4476   CLINEA 0000H 0001H 062AH 0002H 007EH
00:001C 9A 00                    4477   	mov	r0,	#09ah
00:001E 10 01                    4478   	mov	r1,	#010h
00:0020 13-90 10-F9              4479   	st	er0,	0f910h
                                 4480   
                                 4481   ;;	PWCD =    12;		//12    ~  0.25% duty cycle @ 160Hz
                                 4482   CLINEA 0000H 0001H 0634H 0002H 0033H
00:0024 0C E0                    4483   	mov	er0,	#12
00:0026 13-90 12-F9              4484   	st	er0,	0f912h
                                 4485   
                                 4486   ;;	PCRUN = 0;		// OFF to start
                                 4487   CLINEA 0000H 0001H 0636H 0002H 001CH
00:002A 82-A0 17-F9              4488   	rb	0f917h.0
                                 4489   CBLOCKEND 235 2 1592
                                 4490   
                                 4491   ;;}
                                 4492   CLINEA 0000H 0001H 0638H 0001H 0001H
00:002E 1F-FE                    4493   	rt
                                 4494   CBLOCKEND 235 1 1592
                                 4495   CFUNCTIONEND 235
                                 4496   
                                 4497   	public _KMX61_WUFC
                                 4498   	public _KMX61_INC3_CFGDAT
                                 4499   	public _KMX61_TEMP_EN_CNTL_CFGDAT
                                 4500   	public _NOPms
                                 4501   	public _KMX61_INC1_CFGDAT
                                 4502   	public _KMX61_CNTL1_CFGDAT
                                 4503   	public _KMX61_CNTL2_CFGDAT
                                 4504   	public _KMX61_WUFC_CFGDAT
                                 4505   	public _Manufact_ID
                                 4506   	public _checkI2C
                                 4507   	public _DoorOpen
                                 4508   	public _main_clrWDT
                                 4509   	public _ALS0_LSB
                                 4510   	public _ALS0_MSB
                                 4511   	public _KMX61_BTSC
                                 4512   	public _KMX61_ODCNTL
                                 4513   	public _KMX61_COTR
                                 4514   	public _main_reqNotHalt
                                 4515   	public _KMX61_STATUS_REG
                                 4516   	public _KMX61_WUFTH
                                 4517   	public _KMX61_STBY_REG
                                 4518   	public _KMX61_INC1
                                 4519   	public _KMX61_INC2
                                 4520   	public _KMX61_INC3
                                 4521   	public _KMX61_ACCEL_YOUT_H
                                 4522   	public _KMX61_ACCEL_YOUT_L
                                 4523   	public _GetUART_Command
                                 4524   	public _KMX61_INS1
                                 4525   	public _KMX61_INS2
                                 4526   	public _KMX61_MAG_YOUT_H
                                 4527   	public _KMX61_MAG_YOUT_L
                                 4528   	public _KMX61_WUFTH_CFGDAT
                                 4529   	public _PortA_Digital_Inputs
                                 4530   	public _BLINK
                                 4531   	public _KMX61_BUF_THRESH_H
                                 4532   	public _KMX61_BUF_THRESH_L
                                 4533   	public _KMX61_BUF_CLEAR
                                 4534   	public _main
                                 4535   	public _I2C_Write
                                 4536   	public _KMX61_ODCNTL_CFGDAT
                                 4537   	public _OutputPWM
                                 4538   	public _NOP1000
                                 4539   	public _Prox_ModeCTR
                                 4540   	public _KMX61_BTH
                                 4541   	public _KMX61_TEMP_EN_CNTL
                                 4542   	public _KMX61_CNTL1
                                 4543   	public _write
                                 4544   	public _KMX61_CNTL2
                                 4545   	public _KMX61_XOUT_HPF_L
                                 4546   	public _KMX61_XOUT_HPF_H
                                 4547   	public _ALS1_LSB
                                 4548   	public _ALS1_MSB
                                 4549   	public _TimeFlag
                                 4550   	public _KMX61_INL
                                 4551   	public _KMX61_ZOUT_HPF_L
                                 4552   	public _KMX61_ZOUT_HPF_H
                                 4553   	public _PortC_Low
                                 4554   	public _GetColorUART_Command
                                 4555   	public _KMX61_YOUT_HPF_L
                                 4556   	public _KMX61_YOUT_HPF_H
                                 4557   	public _blinkRGB
                                 4558   	public _KMX61_SN_1
                                 4559   	public _KMX61_SN_2
                                 4560   	public _KMX61_SN_3
                                 4561   	public _KMX61_SN_4
                                 4562   	public _sweepRGB
                                 4563   	public _KMX61_SELF_TEST_CFGDAT
                                 4564   	public _Prox_PS_LSB
                                 4565   	public _SET_RGB
                                 4566   	public _Prox_PS_MSB
                                 4567   	public _PortB_Low
                                 4568   	public _KMX61_I2C_ADDR
                                 4569   	public _KMX61_BUF_READ
                                 4570   	public _KMX61_TEMP_OUT_H
                                 4571   	public _KMX61_TEMP_OUT_L
                                 4572   	public _KMX61_ACCEL_XOUT_H
                                 4573   	public _KMX61_ACCEL_ZOUT_H
                                 4574   	public _KMX61_ACCEL_XOUT_L
                                 4575   	public _KMX61_ACCEL_ZOUT_L
                                 4576   	public _KMX61_BUF_CTRL2_CFGDAT
                                 4577   	public _I2C_Read
                                 4578   	public _KMX61_BUF_CTRL1_CFGDAT
                                 4579   	public _KMX61_BUF_CTRL1
                                 4580   	public _KMX61_BUF_CTRL2
                                 4581   	public _KMX61_BUF_STATUS_L
                                 4582   	public _PortA_Low
                                 4583   	public _KMX61_BUF_STATUS_H
                                 4584   	public _analog_comparator
                                 4585   	public _KMX61_MAG_XOUT_H
                                 4586   	public _KMX61_MAG_ZOUT_H
                                 4587   	public _KMX61_MAG_XOUT_L
                                 4588   	public _KMX61_MAG_ZOUT_L
                                 4589   	public _KMX61_SELF_TEST
                                 4590   	public _PWM_SET
                                 4591   	public _KMX61_WHO_AM_I
                                 4592   	public _Init_KMX61
                                 4593   	public _PinB0_PWM
                                 4594   	public _KMX61_BUF_STATUS_REG
                                 4595   	__flgUartFin comm data 01h #00h
                                 4596   	_SensorReturn comm data 04h #00h
                                 4597   	_uniRawSensorOut comm data 06h #00h
                                 4598   	__flgPB2Int comm data 01h #00h
                                 4599   	__flgI2CFin comm data 01h #00h
                                 4600   	_RegVal comm data 01h #00h
                                 4601   	__reqNotHalt comm data 01h #00h
                                 4602   	_timer comm data 02h #00h
                                 4603   	extrn code near : _irq_init
                                 4604   	extrn code near : _uart_PortSet
                                 4605   	extrn code near : _i2c_stop
                                 4606   	extrn code near : _i2c_startReceive
                                 4607   	extrn code near : _uart_startReceive
                                 4608   	extrn code near : _uart_init
                                 4609   	extrn code near : _i2c_continue
                                 4610   	extrn code near : _irq_di
                                 4611   	extrn code near : _irq_ei
                                 4612   	extrn code near : _irq_setHdr
                                 4613   	extrn code near : _uart_stop
                                 4614   	extrn code near : _uart_startSend
                                 4615   	extrn code near : _i2c_startSend
                                 4616   	extrn code near : _uart_continue
                                 4617   	extrn code near : _i2c_init
                                 4618   	extrn code near : _tm_init
                                 4619   	extrn code : $$start_up
                                 4620   
  --------------------------     4621   	cseg #00h at 02h
00:0002 00-00'                   4622   	dw	$$start_up
                                 4623   
  --------------------------     4624   	rseg $$NINITTAB
??:0000 00                       4625   	db	00h
??:0001 00                       4626   	align
??:0002 02-00                    4627   	dw	02h
??:0004 01                       4628   	db	01h
??:0005 00                       4629   	db	00h
??:0006 00                       4630   	db	00h
??:0007 20                       4631   	db	020h
??:0008 20                       4632   	db	020h
??:0009 20                       4633   	db	020h
??:000A 20                       4634   	db	020h
??:000B 20                       4635   	db	020h
??:000C 20                       4636   	db	020h
??:000D 20                       4637   	db	020h
??:000E 20                       4638   	db	020h
                                 4639   
  --------------------------     4640   	rseg $$TAB_uartSetParam$main
00:0000                          4641   __uartSetParam :
00:0000 00-4B                    4642   	dw	04b00h
00:0002 00-00                    4643   	dw	00h
00:0004 00                       4644   	db	00h
00:0005 02                       4645   	db	02h
00:0006 00                       4646   	db	00h
00:0007 00                       4647   	db	00h
00:0008 00                       4648   	db	00h
00:0009 00                       4649   	align
                                 4650   
  --------------------------     4651   	rseg $$TABManufact_ID$main
00:0000                          4652   _Manufact_ID :
00:0000 92                       4653   	db	092h
                                 4654   
  --------------------------     4655   	rseg $$TABProx_ModeCTR$main
00:0000                          4656   _Prox_ModeCTR :
00:0000 41                       4657   	db	041h
                                 4658   
  --------------------------     4659   	rseg $$TABProx_PS_LSB$main
00:0000                          4660   _Prox_PS_LSB :
00:0000 44                       4661   	db	044h
                                 4662   
  --------------------------     4663   	rseg $$TABProx_PS_MSB$main
00:0000                          4664   _Prox_PS_MSB :
00:0000 45                       4665   	db	045h
                                 4666   
  --------------------------     4667   	rseg $$TABALS0_LSB$main
00:0000                          4668   _ALS0_LSB :
00:0000 46                       4669   	db	046h
                                 4670   
  --------------------------     4671   	rseg $$TABALS0_MSB$main
00:0000                          4672   _ALS0_MSB :
00:0000 47                       4673   	db	047h
                                 4674   
  --------------------------     4675   	rseg $$TABALS1_LSB$main
00:0000                          4676   _ALS1_LSB :
00:0000 48                       4677   	db	048h
                                 4678   
  --------------------------     4679   	rseg $$TABALS1_MSB$main
00:0000                          4680   _ALS1_MSB :
00:0000 49                       4681   	db	049h
                                 4682   
  --------------------------     4683   	rseg $$TABKMX61_I2C_ADDR$main
00:0000                          4684   _KMX61_I2C_ADDR :
00:0000 0E                       4685   	db	0eh
                                 4686   
  --------------------------     4687   	rseg $$TABKMX61_WHO_AM_I$main
00:0000                          4688   _KMX61_WHO_AM_I :
00:0000 00                       4689   	db	00h
                                 4690   
  --------------------------     4691   	rseg $$TABKMX61_INS1$main
00:0000                          4692   _KMX61_INS1 :
00:0000 01                       4693   	db	01h
                                 4694   
  --------------------------     4695   	rseg $$TABKMX61_INS2$main
00:0000                          4696   _KMX61_INS2 :
00:0000 02                       4697   	db	02h
                                 4698   
  --------------------------     4699   	rseg $$TABKMX61_STATUS_REG$main
00:0000                          4700   _KMX61_STATUS_REG :
00:0000 03                       4701   	db	03h
                                 4702   
  --------------------------     4703   	rseg $$TABKMX61_ACCEL_XOUT_L$main
00:0000                          4704   _KMX61_ACCEL_XOUT_L :
00:0000 0A                       4705   	db	0ah
                                 4706   
  --------------------------     4707   	rseg $$TABKMX61_ACCEL_XOUT_H$main
00:0000                          4708   _KMX61_ACCEL_XOUT_H :
00:0000 0B                       4709   	db	0bh
                                 4710   
  --------------------------     4711   	rseg $$TABKMX61_ACCEL_YOUT_L$main
00:0000                          4712   _KMX61_ACCEL_YOUT_L :
00:0000 0C                       4713   	db	0ch
                                 4714   
  --------------------------     4715   	rseg $$TABKMX61_ACCEL_YOUT_H$main
00:0000                          4716   _KMX61_ACCEL_YOUT_H :
00:0000 0D                       4717   	db	0dh
                                 4718   
  --------------------------     4719   	rseg $$TABKMX61_ACCEL_ZOUT_L$main
00:0000                          4720   _KMX61_ACCEL_ZOUT_L :
00:0000 0E                       4721   	db	0eh
                                 4722   
  --------------------------     4723   	rseg $$TABKMX61_ACCEL_ZOUT_H$main
00:0000                          4724   _KMX61_ACCEL_ZOUT_H :
00:0000 0F                       4725   	db	0fh
                                 4726   
  --------------------------     4727   	rseg $$TABKMX61_TEMP_OUT_L$main
00:0000                          4728   _KMX61_TEMP_OUT_L :
00:0000 10                       4729   	db	010h
                                 4730   
  --------------------------     4731   	rseg $$TABKMX61_TEMP_OUT_H$main
00:0000                          4732   _KMX61_TEMP_OUT_H :
00:0000 11                       4733   	db	011h
                                 4734   
  --------------------------     4735   	rseg $$TABKMX61_MAG_XOUT_L$main
00:0000                          4736   _KMX61_MAG_XOUT_L :
00:0000 12                       4737   	db	012h
                                 4738   
  --------------------------     4739   	rseg $$TABKMX61_MAG_XOUT_H$main
00:0000                          4740   _KMX61_MAG_XOUT_H :
00:0000 13                       4741   	db	013h
                                 4742   
  --------------------------     4743   	rseg $$TABKMX61_MAG_YOUT_L$main
00:0000                          4744   _KMX61_MAG_YOUT_L :
00:0000 14                       4745   	db	014h
                                 4746   
  --------------------------     4747   	rseg $$TABKMX61_MAG_YOUT_H$main
00:0000                          4748   _KMX61_MAG_YOUT_H :
00:0000 15                       4749   	db	015h
                                 4750   
  --------------------------     4751   	rseg $$TABKMX61_MAG_ZOUT_L$main
00:0000                          4752   _KMX61_MAG_ZOUT_L :
00:0000 16                       4753   	db	016h
                                 4754   
  --------------------------     4755   	rseg $$TABKMX61_MAG_ZOUT_H$main
00:0000                          4756   _KMX61_MAG_ZOUT_H :
00:0000 17                       4757   	db	017h
                                 4758   
  --------------------------     4759   	rseg $$TABKMX61_XOUT_HPF_L$main
00:0000                          4760   _KMX61_XOUT_HPF_L :
00:0000 18                       4761   	db	018h
                                 4762   
  --------------------------     4763   	rseg $$TABKMX61_XOUT_HPF_H$main
00:0000                          4764   _KMX61_XOUT_HPF_H :
00:0000 19                       4765   	db	019h
                                 4766   
  --------------------------     4767   	rseg $$TABKMX61_YOUT_HPF_L$main
00:0000                          4768   _KMX61_YOUT_HPF_L :
00:0000 1A                       4769   	db	01ah
                                 4770   
  --------------------------     4771   	rseg $$TABKMX61_YOUT_HPF_H$main
00:0000                          4772   _KMX61_YOUT_HPF_H :
00:0000 1B                       4773   	db	01bh
                                 4774   
  --------------------------     4775   	rseg $$TABKMX61_ZOUT_HPF_L$main
00:0000                          4776   _KMX61_ZOUT_HPF_L :
00:0000 1C                       4777   	db	01ch
                                 4778   
  --------------------------     4779   	rseg $$TABKMX61_ZOUT_HPF_H$main
00:0000                          4780   _KMX61_ZOUT_HPF_H :
00:0000 1D                       4781   	db	01dh
                                 4782   
  --------------------------     4783   	rseg $$TABKMX61_SN_1$main
00:0000                          4784   _KMX61_SN_1 :
00:0000 24                       4785   	db	024h
                                 4786   
  --------------------------     4787   	rseg $$TABKMX61_SN_2$main
00:0000                          4788   _KMX61_SN_2 :
00:0000 25                       4789   	db	025h
                                 4790   
  --------------------------     4791   	rseg $$TABKMX61_SN_3$main
00:0000                          4792   _KMX61_SN_3 :
00:0000 26                       4793   	db	026h
                                 4794   
  --------------------------     4795   	rseg $$TABKMX61_SN_4$main
00:0000                          4796   _KMX61_SN_4 :
00:0000 27                       4797   	db	027h
                                 4798   
  --------------------------     4799   	rseg $$TABKMX61_INL$main
00:0000                          4800   _KMX61_INL :
00:0000 28                       4801   	db	028h
                                 4802   
  --------------------------     4803   	rseg $$TABKMX61_STBY_REG$main
00:0000                          4804   _KMX61_STBY_REG :
00:0000 29                       4805   	db	029h
                                 4806   
  --------------------------     4807   	rseg $$TABKMX61_CNTL1$main
00:0000                          4808   _KMX61_CNTL1 :
00:0000 2A                       4809   	db	02ah
                                 4810   
  --------------------------     4811   	rseg $$TABKMX61_CNTL2$main
00:0000                          4812   _KMX61_CNTL2 :
00:0000 2B                       4813   	db	02bh
                                 4814   
  --------------------------     4815   	rseg $$TABKMX61_ODCNTL$main
00:0000                          4816   _KMX61_ODCNTL :
00:0000 2C                       4817   	db	02ch
                                 4818   
  --------------------------     4819   	rseg $$TABKMX61_INC1$main
00:0000                          4820   _KMX61_INC1 :
00:0000 2D                       4821   	db	02dh
                                 4822   
  --------------------------     4823   	rseg $$TABKMX61_INC2$main
00:0000                          4824   _KMX61_INC2 :
00:0000 2E                       4825   	db	02eh
                                 4826   
  --------------------------     4827   	rseg $$TABKMX61_INC3$main
00:0000                          4828   _KMX61_INC3 :
00:0000 2F                       4829   	db	02fh
                                 4830   
  --------------------------     4831   	rseg $$TABKMX61_COTR$main
00:0000                          4832   _KMX61_COTR :
00:0000 3C                       4833   	db	03ch
                                 4834   
  --------------------------     4835   	rseg $$TABKMX61_WUFTH$main
00:0000                          4836   _KMX61_WUFTH :
00:0000 3D                       4837   	db	03dh
                                 4838   
  --------------------------     4839   	rseg $$TABKMX61_WUFC$main
00:0000                          4840   _KMX61_WUFC :
00:0000 3E                       4841   	db	03eh
                                 4842   
  --------------------------     4843   	rseg $$TABKMX61_BTH$main
00:0000                          4844   _KMX61_BTH :
00:0000 3F                       4845   	db	03fh
                                 4846   
  --------------------------     4847   	rseg $$TABKMX61_BTSC$main
00:0000                          4848   _KMX61_BTSC :
00:0000 40                       4849   	db	040h
                                 4850   
  --------------------------     4851   	rseg $$TABKMX61_TEMP_EN_CNTL$main
00:0000                          4852   _KMX61_TEMP_EN_CNTL :
00:0000 4C                       4853   	db	04ch
                                 4854   
  --------------------------     4855   	rseg $$TABKMX61_SELF_TEST$main
00:0000                          4856   _KMX61_SELF_TEST :
00:0000 60                       4857   	db	060h
                                 4858   
  --------------------------     4859   	rseg $$TABKMX61_BUF_THRESH_H$main
00:0000                          4860   _KMX61_BUF_THRESH_H :
00:0000 76                       4861   	db	076h
                                 4862   
  --------------------------     4863   	rseg $$TABKMX61_BUF_THRESH_L$main
00:0000                          4864   _KMX61_BUF_THRESH_L :
00:0000 77                       4865   	db	077h
                                 4866   
  --------------------------     4867   	rseg $$TABKMX61_BUF_CTRL1$main
00:0000                          4868   _KMX61_BUF_CTRL1 :
00:0000 78                       4869   	db	078h
                                 4870   
  --------------------------     4871   	rseg $$TABKMX61_BUF_CTRL2$main
00:0000                          4872   _KMX61_BUF_CTRL2 :
00:0000 79                       4873   	db	079h
                                 4874   
  --------------------------     4875   	rseg $$TABKMX61_BUF_CLEAR$main
00:0000                          4876   _KMX61_BUF_CLEAR :
00:0000 7A                       4877   	db	07ah
                                 4878   
  --------------------------     4879   	rseg $$TABKMX61_BUF_STATUS_REG$main
00:0000                          4880   _KMX61_BUF_STATUS_REG :
00:0000 7B                       4881   	db	07bh
                                 4882   
  --------------------------     4883   	rseg $$TABKMX61_BUF_STATUS_H$main
00:0000                          4884   _KMX61_BUF_STATUS_H :
00:0000 7C                       4885   	db	07ch
                                 4886   
  --------------------------     4887   	rseg $$TABKMX61_BUF_STATUS_L$main
00:0000                          4888   _KMX61_BUF_STATUS_L :
00:0000 7D                       4889   	db	07dh
                                 4890   
  --------------------------     4891   	rseg $$TABKMX61_BUF_READ$main
00:0000                          4892   _KMX61_BUF_READ :
00:0000 7E                       4893   	db	07eh
                                 4894   
  --------------------------     4895   	rseg $$TABKMX61_SELF_TEST_CFGDAT$main
00:0000                          4896   _KMX61_SELF_TEST_CFGDAT :
00:0000 00                       4897   	db	00h
                                 4898   
  --------------------------     4899   	rseg $$TABKMX61_CNTL1_CFGDAT$main
00:0000                          4900   _KMX61_CNTL1_CFGDAT :
00:0000 53                       4901   	db	053h
                                 4902   
  --------------------------     4903   	rseg $$TABKMX61_CNTL2_CFGDAT$main
00:0000                          4904   _KMX61_CNTL2_CFGDAT :
00:0000 00                       4905   	db	00h
                                 4906   
  --------------------------     4907   	rseg $$TABKMX61_ODCNTL_CFGDAT$main
00:0000                          4908   _KMX61_ODCNTL_CFGDAT :
00:0000 00                       4909   	db	00h
                                 4910   
  --------------------------     4911   	rseg $$TABKMX61_TEMP_EN_CNTL_CFGDAT$main
00:0000                          4912   _KMX61_TEMP_EN_CNTL_CFGDAT :
00:0000 01                       4913   	db	01h
                                 4914   
  --------------------------     4915   	rseg $$TABKMX61_BUF_CTRL1_CFGDAT$main
00:0000                          4916   _KMX61_BUF_CTRL1_CFGDAT :
00:0000 00                       4917   	db	00h
                                 4918   
  --------------------------     4919   	rseg $$TABKMX61_BUF_CTRL2_CFGDAT$main
00:0000                          4920   _KMX61_BUF_CTRL2_CFGDAT :
00:0000 00                       4921   	db	00h
                                 4922   
  --------------------------     4923   	rseg $$TABKMX61_INC1_CFGDAT$main
00:0000                          4924   _KMX61_INC1_CFGDAT :
00:0000 29                       4925   	db	029h
                                 4926   
  --------------------------     4927   	rseg $$TABKMX61_INC3_CFGDAT$main
00:0000                          4928   _KMX61_INC3_CFGDAT :
00:0000 02                       4929   	db	02h
                                 4930   
  --------------------------     4931   	rseg $$TABKMX61_WUFTH_CFGDAT$main
00:0000                          4932   _KMX61_WUFTH_CFGDAT :
00:0000 08                       4933   	db	08h
                                 4934   
  --------------------------     4935   	rseg $$TABKMX61_WUFC_CFGDAT$main
00:0000                          4936   _KMX61_WUFC_CFGDAT :
00:0000 01                       4937   	db	01h
                                 4938   
  --------------------------     4939   	rseg $$NINITVAR
00:0000                          4940   _DoorOpen :
00:0000                          4941   	ds	01h
00:0001                          4942   	align
00:0002                          4943   _TimeFlag :
00:0002                          4944   	ds	02h
00:0004                          4945   _SensorIntializationFlag :
00:0004                          4946   	ds	01h
00:0005                          4947   _LEDFlashFlag :
00:0005                          4948   	ds	01h
00:0006                          4949   _LEDChangeFlag :
00:0006                          4950   	ds	01h
00:0007                          4951   _str :
00:0007                          4952   	ds	08h
                                 4953   
  --------------------------     4954   	rseg $$NVARmain
00:0000                          4955   _KnotsUnit :
00:0000                          4956   	ds	01h
00:0001                          4957   	align
00:0002                          4958   _bulbMode :
00:0002                          4959   	ds	02h
00:0004                          4960   _i :
00:0004                          4961   	ds	02h
00:0006                          4962   _j :
00:0006                          4963   	ds	02h
00:0008                          4964   _k :
00:0008                          4965   	ds	02h
00:000A                          4966   _w :
00:000A                          4967   	ds	02h
00:000C                          4968   _x :
00:000C                          4969   	ds	02h
00:000E                          4970   _bulbState :
00:000E                          4971   	ds	01h
00:000F                          4972   	align
00:0010                          4973   _y :
00:0010                          4974   	ds	02h
00:0012                          4975   _z :
00:0012                          4976   	ds	02h
00:0014                          4977   _KnotsSpeed :
00:0014                          4978   	ds	08h
00:001C                          4979   _Latitude :
00:001C                          4980   	ds	08h
00:0024                          4981   _HomeTolerance :
00:0024                          4982   	ds	08h
00:002C                          4983   _Eleveation :
00:002C                          4984   	ds	02h
00:002E                          4985   _hexToDecOffset :
00:002E                          4986   	ds	02h
00:0030                          4987   _ReceiverState :
00:0030                          4988   	ds	01h
00:0031                          4989   _LonDir :
00:0031                          4990   	ds	01h
00:0032                          4991   _CheckPointIndex :
00:0032                          4992   	ds	02h
00:0034                          4993   _Geoid :
00:0034                          4994   	ds	08h
00:003C                          4995   _Date :
00:003C                          4996   	ds	04h
00:0040                          4997   _val :
00:0040                          4998   	ds	0320h
00:0360                          4999   _LatDest :
00:0360                          5000   	ds	028h
00:0388                          5001   _commandVal :
00:0388                          5002   	ds	03h
00:038B                          5003   	align
00:038C                          5004   _Course :
00:038C                          5005   	ds	08h
00:0394                          5006   _GSV_Info :
00:0394                          5007   	ds	018h
00:03AC                          5008   _PDOP :
00:03AC                          5009   	ds	08h
00:03B4                          5010   _isTrueNorth :
00:03B4                          5011   	ds	01h
00:03B5                          5012   	align
00:03B6                          5013   _flag :
00:03B6                          5014   	ds	02h
00:03B8                          5015   _outputVal :
00:03B8                          5016   	ds	04h
00:03BC                          5017   _bulbIntensity :
00:03BC                          5018   	ds	02h
00:03BE                          5019   _fixQuality :
00:03BE                          5020   	ds	02h
00:03C0                          5021   _checkSum :
00:03C0                          5022   	ds	02h
00:03C2                          5023   _VDOP :
00:03C2                          5024   	ds	08h
00:03CA                          5025   _LonDest :
00:03CA                          5026   	ds	028h
00:03F2                          5027   _prevBulbIntensity :
00:03F2                          5028   	ds	08h
00:03FA                          5029   _R_Value :
00:03FA                          5030   	ds	04h
00:03FE                          5031   _B_Value :
00:03FE                          5032   	ds	04h
00:0402                          5033   _GroundSpeed :
00:0402                          5034   	ds	08h
00:040A                          5035   _G_Value :
00:040A                          5036   	ds	04h
00:040E                          5037   _bulbEnable :
00:040E                          5038   	ds	02h
00:0410                          5039   _SensorPlatformSelection :
00:0410                          5040   	ds	01h
00:0411                          5041   _LatLonValid :
00:0411                          5042   	ds	01h
00:0412                          5043   _Mode :
00:0412                          5044   	ds	02h
00:0414                          5045   _sigDigits :
00:0414                          5046   	ds	02h
00:0416                          5047   _LatDir :
00:0416                          5048   	ds	01h
00:0417                          5049   	align
00:0418                          5050   _isSettingMode :
00:0418                          5051   	ds	02h
00:041A                          5052   _isNeg :
00:041A                          5053   	ds	02h
00:041C                          5054   _MagDegrees :
00:041C                          5055   	ds	08h
00:0424                          5056   _MagDir :
00:0424                          5057   	ds	01h
00:0425                          5058   	align
00:0426                          5059   _wordIndex :
00:0426                          5060   	ds	02h
00:0428                          5061   _temp :
00:0428                          5062   	ds	01h
00:0429                          5063   _speedUnit :
00:0429                          5064   	ds	01h
00:042A                          5065   _Azimuth :
00:042A                          5066   	ds	02h
00:042C                          5067   _TrueDegrees :
00:042C                          5068   	ds	08h
00:0434                          5069   _Longitude :
00:0434                          5070   	ds	08h
00:043C                          5071   _MSL :
00:043C                          5072   	ds	08h
00:0444                          5073   _MagneticVariation :
00:0444                          5074   	ds	08h
00:044C                          5075   _SNR :
00:044C                          5076   	ds	02h
00:044E                          5077   _buffer :
00:044E                          5078   	ds	014h
00:0462                          5079   _KMHSpeed :
00:0462                          5080   	ds	01h
00:0463                          5081   	align
00:0464                          5082   _GSV_index :
00:0464                          5083   	ds	02h
00:0466                          5084   _word :
00:0466                          5085   	ds	064h
00:04CA                          5086   _UTC :
00:04CA                          5087   	ds	06h
00:04D0                          5088   _PRN_num :
00:04D0                          5089   	ds	02h
00:04D2                          5090   _numSat :
00:04D2                          5091   	ds	02h
00:04D4                          5092   _GSV_numMessage :
00:04D4                          5093   	ds	02h
00:04D6                          5094   _HDOP :
00:04D6                          5095   	ds	08h
00:04DE                          5096   _SV_ID :
00:04DE                          5097   	ds	018h
00:04F6                          5098   _isMagNorth :
00:04F6                          5099   	ds	01h
                                 5100   
  --------------------------     5101   	rseg $$NINITTAB
??:000F 00                       5102   	align
                                 5103   
  --------------------------     5104   	rseg $$NINITVAR
00:000F                          5105   	align
                                 5106   
                                 5107   	end



  Target       : ML610111 (nX-U8/100)
  Memory Model : SMALL
  Data   Model : NEAR
  ROM WINDOW   : (not specified)
  Internal RAM : E000H to E7FFH

  Errors   : 0
  Warnings : 0  (/Wrpeast)
  Lines    : 5107
