RASU8(ML610111)Relocatable Assembler, Ver.1.61.2    assemble list. page:   1 
 Source File: _output\_obj\main.asm
 Object File: _output\_obj\main.obj
 Date  : 2015/04/30 Thu.[16:55]
 Title : 
## Loc. Object                   Line   Source Statements

                                    1   ;; Compile Options : /TML610111 /MS /near /Icommon /Imain /Iirq /Itimer /Iclock /Itbc /Ipwm /Iuart /Ivolume /Iled /Ii2c /SS 256 /SD /Oa /Ot /W 1 /Ff /Fa_output\_obj\ 
                                    2   ;; Version Number  : Ver.3.41.8
                                    3   ;; File Name       : main.c
                                    4   
                                    5   	type (ML610111) 
                                    6   	fastfloat
                                    7   	model small, near
                                    8   	$$NVARmain segment data 2h #0h
                                    9   	$$NINITVAR segment data 2h #0h
                                   10   	$$NINITTAB segment table 2h any
                                   11   	$$BLINK$main segment code 2h #0h
                                   12   	$$BLINK_SLOW$main segment code 2h #0h
                                   13   	$$GetUART_Command$main segment code 2h #0h
                                   14   	$$I2C_Read$main segment code 2h #0h
                                   15   	$$I2C_Write$main segment code 2h #0h
                                   16   	$$Init_KMX61$main segment code 2h #0h
                                   17   	$$Initialization$main segment code 2h #0h
                                   18   	$$NOP1000$main segment code 2h #0h
                                   19   	$$NOPms$main segment code 2h #0h
                                   20   	$$OutputPWM$main segment code 2h #0h
                                   21   	$$PinB0_PWM$main segment code 2h #0h
                                   22   	$$PortA_Digital_Inputs$main segment code 2h #0h
                                   23   	$$PortA_Low$main segment code 2h #0h
                                   24   	$$PortB_Low$main segment code 2h #0h
                                   25   	$$PortC_Low$main segment code 2h #0h
                                   26   	$$SWEEP_RGB$main segment code 2h #0h
                                   27   	$$SetOSC$main segment code 2h #0h
                                   28   	$$TAB$$S135$main segment table 2h #0h
                                   29   	$$TAB$$S139$main segment table 2h #0h
                                   30   	$$TABALS0_LSB$main segment table 2h #0h
                                   31   	$$TABALS0_MSB$main segment table 2h #0h
                                   32   	$$TABALS1_LSB$main segment table 2h #0h
                                   33   	$$TABALS1_MSB$main segment table 2h #0h
                                   34   	$$TABKMX61_ACCEL_XOUT_H$main segment table 2h #0h
                                   35   	$$TABKMX61_ACCEL_XOUT_L$main segment table 2h #0h
                                   36   	$$TABKMX61_ACCEL_YOUT_H$main segment table 2h #0h
                                   37   	$$TABKMX61_ACCEL_YOUT_L$main segment table 2h #0h
                                   38   	$$TABKMX61_ACCEL_ZOUT_H$main segment table 2h #0h
                                   39   	$$TABKMX61_ACCEL_ZOUT_L$main segment table 2h #0h
                                   40   	$$TABKMX61_BTH$main segment table 2h #0h
                                   41   	$$TABKMX61_BTSC$main segment table 2h #0h
                                   42   	$$TABKMX61_BUF_CLEAR$main segment table 2h #0h
                                   43   	$$TABKMX61_BUF_CTRL1$main segment table 2h #0h
                                   44   	$$TABKMX61_BUF_CTRL1_CFGDAT$main segment table 2h #0h
                                   45   	$$TABKMX61_BUF_CTRL2$main segment table 2h #0h
                                   46   	$$TABKMX61_BUF_CTRL2_CFGDAT$main segment table 2h #0h
                                   47   	$$TABKMX61_BUF_READ$main segment table 2h #0h
                                   48   	$$TABKMX61_BUF_STATUS_H$main segment table 2h #0h
                                   49   	$$TABKMX61_BUF_STATUS_L$main segment table 2h #0h
                                   50   	$$TABKMX61_BUF_STATUS_REG$main segment table 2h #0h
                                   51   	$$TABKMX61_BUF_THRESH_H$main segment table 2h #0h
                                   52   	$$TABKMX61_BUF_THRESH_L$main segment table 2h #0h
                                   53   	$$TABKMX61_CNTL1$main segment table 2h #0h
                                   54   	$$TABKMX61_CNTL1_CFGDAT$main segment table 2h #0h
                                   55   	$$TABKMX61_CNTL2$main segment table 2h #0h
                                   56   	$$TABKMX61_CNTL2_CFGDAT$main segment table 2h #0h
                                   57   	$$TABKMX61_COTR$main segment table 2h #0h
                                   58   	$$TABKMX61_I2C_ADDR$main segment table 2h #0h
                                   59   	$$TABKMX61_INC1$main segment table 2h #0h
                                   60   	$$TABKMX61_INC1_CFGDAT$main segment table 2h #0h
                                   61   	$$TABKMX61_INC2$main segment table 2h #0h
                                   62   	$$TABKMX61_INC3$main segment table 2h #0h
                                   63   	$$TABKMX61_INC3_CFGDAT$main segment table 2h #0h
                                   64   	$$TABKMX61_INL$main segment table 2h #0h
                                   65   	$$TABKMX61_INS1$main segment table 2h #0h
                                   66   	$$TABKMX61_INS2$main segment table 2h #0h
                                   67   	$$TABKMX61_MAG_XOUT_H$main segment table 2h #0h
                                   68   	$$TABKMX61_MAG_XOUT_L$main segment table 2h #0h
                                   69   	$$TABKMX61_MAG_YOUT_H$main segment table 2h #0h
                                   70   	$$TABKMX61_MAG_YOUT_L$main segment table 2h #0h
                                   71   	$$TABKMX61_MAG_ZOUT_H$main segment table 2h #0h
                                   72   	$$TABKMX61_MAG_ZOUT_L$main segment table 2h #0h
                                   73   	$$TABKMX61_ODCNTL$main segment table 2h #0h
                                   74   	$$TABKMX61_ODCNTL_CFGDAT$main segment table 2h #0h
                                   75   	$$TABKMX61_SELF_TEST$main segment table 2h #0h
                                   76   	$$TABKMX61_SELF_TEST_CFGDAT$main segment table 2h #0h
                                   77   	$$TABKMX61_SN_1$main segment table 2h #0h
                                   78   	$$TABKMX61_SN_2$main segment table 2h #0h
                                   79   	$$TABKMX61_SN_3$main segment table 2h #0h
                                   80   	$$TABKMX61_SN_4$main segment table 2h #0h
                                   81   	$$TABKMX61_STATUS_REG$main segment table 2h #0h
                                   82   	$$TABKMX61_STBY_REG$main segment table 2h #0h
                                   83   	$$TABKMX61_TEMP_EN_CNTL$main segment table 2h #0h
                                   84   	$$TABKMX61_TEMP_EN_CNTL_CFGDAT$main segment table 2h #0h
                                   85   	$$TABKMX61_TEMP_OUT_H$main segment table 2h #0h
                                   86   	$$TABKMX61_TEMP_OUT_L$main segment table 2h #0h
                                   87   	$$TABKMX61_WHO_AM_I$main segment table 2h #0h
                                   88   	$$TABKMX61_WUFC$main segment table 2h #0h
                                   89   	$$TABKMX61_WUFC_CFGDAT$main segment table 2h #0h
                                   90   	$$TABKMX61_WUFTH$main segment table 2h #0h
                                   91   	$$TABKMX61_WUFTH_CFGDAT$main segment table 2h #0h
                                   92   	$$TABKMX61_XOUT_HPF_H$main segment table 2h #0h
                                   93   	$$TABKMX61_XOUT_HPF_L$main segment table 2h #0h
                                   94   	$$TABKMX61_YOUT_HPF_H$main segment table 2h #0h
                                   95   	$$TABKMX61_YOUT_HPF_L$main segment table 2h #0h
                                   96   	$$TABKMX61_ZOUT_HPF_H$main segment table 2h #0h
                                   97   	$$TABKMX61_ZOUT_HPF_L$main segment table 2h #0h
                                   98   	$$TABManufact_ID$main segment table 2h #0h
                                   99   	$$TABProx_ModeCTR$main segment table 2h #0h
                                  100   	$$TABProx_PS_LSB$main segment table 2h #0h
                                  101   	$$TABProx_PS_MSB$main segment table 2h #0h
                                  102   	$$TAB_uartSetParam$main segment table 2h #0h
                                  103   	$$_funcI2CFin$main segment code 2h #0h
                                  104   	$$_funcUartFin$main segment code 2h #0h
                                  105   	$$_intI2c$main segment code 2h #0h
                                  106   	$$_intPB2$main segment code 2h #0h
                                  107   	$$_intUart$main segment code 2h #0h
                                  108   	$$analog_comparator$main segment code 2h #0h
                                  109   	$$checkI2C$main segment code 2h #0h
                                  110   	$$main$main segment code 2h #0h
                                  111   	$$main_clrWDT$main segment code 2h #0h
                                  112   	$$main_reqNotHalt$main segment code 2h #0h
                                  113   	$$write$main segment code 2h #0h
                                  114   	STACKSEG 0100h
                                  115   CVERSION 3.41.8
                                  116   CGLOBAL 01H 03H 0000H "NOPms" 08H 02H 0C3H 00H 81H 0aH 00H 00H 07H
                                  117   CGLOBAL 01H 03H 0000H "checkI2C" 08H 02H 0BDH 00H 81H 02H 00H 00H 07H
                                  118   CGLOBAL 01H 03H 0000H "main_clrWDT" 08H 02H 0B1H 00H 80H 00H 00H 00H 07H
                                  119   CSGLOBAL 03H 0000H "_funcUartFin" 08H 02H 0BBH 00H 81H 02H 00H 00H 07H
                                  120   CGLOBAL 01H 03H 0000H "main_reqNotHalt" 08H 02H 0BEH 00H 80H 00H 00H 00H 07H
                                  121   CGLOBAL 01H 03H 0000H "GetUART_Command" 08H 02H 0CCH 00H 81H 16H 00H 00H 07H
                                  122   CSGLOBAL 03H 0000H "Initialization" 08H 02H 0B2H 00H 81H 04H 00H 00H 07H
                                  123   CGLOBAL 01H 03H 0000H "PortA_Digital_Inputs" 08H 02H 0E3H 00H 80H 00H 00H 00H 07H
                                  124   CGLOBAL 01H 03H 0000H "BLINK" 08H 02H 0C5H 00H 81H 02H 00H 00H 07H
                                  125   CGLOBAL 01H 03H 0000H "SWEEP_RGB" 08H 02H 0C7H 00H 80H 00H 00H 00H 07H
                                  126   CGLOBAL 01H 03H 0000H "main" 08H 02H 0C8H 00H 80H 06H 00H 00H 01H
                                  127   CSGLOBAL 03H 0000H "_intUart" 08H 02H 0BFH 00H 80H 00H 00H 00H 07H
                                  128   CGLOBAL 01H 03H 0000H "I2C_Write" 08H 02H 0B9H 00H 83H 10H 00H 00H 07H
                                  129   CGLOBAL 01H 03H 0000H "OutputPWM" 08H 02H 0C4H 00H 80H 00H 00H 00H 07H
                                  130   CGLOBAL 01H 03H 0000H "NOP1000" 08H 02H 0C2H 00H 80H 00H 00H 00H 07H
                                  131   CSGLOBAL 03H 0000H "_intI2c" 08H 02H 0C0H 00H 81H 02H 00H 00H 07H
                                  132   CGLOBAL 01H 03H 0000H "write" 08H 02H 0B7H 00H 83H 08H 00H 00H 01H
                                  133   CSGLOBAL 03H 0000H "SetOSC" 08H 02H 0B3H 00H 80H 00H 00H 00H 07H
                                  134   CGLOBAL 01H 03H 0000H "PortC_Low" 08H 02H 0B6H 00H 80H 00H 00H 00H 07H
                                  135   CSGLOBAL 03H 0000H "_intPB2" 08H 02H 0C1H 00H 80H 00H 00H 00H 07H
                                  136   CGLOBAL 01H 03H 0000H "PortB_Low" 08H 02H 0B5H 00H 80H 00H 00H 00H 07H
                                  137   CGLOBAL 01H 03H 0000H "I2C_Read" 08H 02H 0B8H 00H 83H 10H 00H 00H 07H
                                  138   CGLOBAL 01H 03H 0000H "PortA_Low" 08H 02H 0B4H 00H 80H 00H 00H 00H 07H
                                  139   CGLOBAL 01H 03H 0000H "analog_comparator" 08H 02H 0DFH 00H 80H 00H 00H 00H 07H
                                  140   CSGLOBAL 03H 0000H "_funcI2CFin" 08H 02H 0BCH 00H 81H 02H 00H 00H 07H
                                  141   CGLOBAL 01H 03H 0000H "Init_KMX61" 08H 02H 0BAH 00H 81H 08H 00H 00H 07H
                                  142   CGLOBAL 01H 03H 0000H "PinB0_PWM" 08H 02H 0E4H 00H 80H 00H 00H 00H 07H
                                  143   CGLOBAL 01H 03H 0000H "BLINK_SLOW" 08H 02H 0C6H 00H 81H 02H 00H 00H 07H
                                  144   CSTRUCTTAG 0000H 0000H 0005H 0006H 0000000AH "_Notag"
                                  145   CSTRUCTMEM 42H 00000004H 00000000H "br" 02H 00H 02H
                                  146   CSTRUCTMEM 42H 00000001H 00000004H "lg" 02H 00H 00H
                                  147   CSTRUCTMEM 42H 00000001H 00000005H "pt" 02H 00H 00H
                                  148   CSTRUCTMEM 42H 00000001H 00000006H "stp" 02H 00H 00H
                                  149   CSTRUCTMEM 42H 00000001H 00000007H "neg" 02H 00H 00H
                                  150   CSTRUCTMEM 42H 00000001H 00000008H "dir" 02H 00H 00H
                                  151   CSTRUCTTAG 0000H 0000H 0004H 0002H 00000008H "_Notag"
                                  152   CSTRUCTMEM 43H 00000004H 00000000H "quot" 02H 00H 02H
                                  153   CSTRUCTMEM 43H 00000004H 00000004H "rem" 02H 00H 02H
                                  154   CSTRUCTTAG 0000H 0000H 0003H 0002H 00000004H "_Notag"
                                  155   CSTRUCTMEM 43H 00000002H 00000000H "quot" 02H 00H 01H
                                  156   CSTRUCTMEM 43H 00000002H 00000002H "rem" 02H 00H 01H
                                  157   CSTRUCTTAG 0000H 0000H 0002H 000CH 00000016H "_Notag"
                                  158   CSTRUCTMEM 42H 00000002H 00000000H "_Mode" 02H 00H 08H
                                  159   CSTRUCTMEM 43H 00000002H 00000002H "_Handle" 02H 00H 08H
                                  160   CSTRUCTMEM 42H 00000002H 00000004H "_Buf" 04H 03H 00H 00H 00H
                                  161   CSTRUCTMEM 42H 00000002H 00000006H "_Bend" 04H 03H 00H 00H 00H
                                  162   CSTRUCTMEM 42H 00000002H 00000008H "_Next" 04H 03H 00H 00H 00H
                                  163   CSTRUCTMEM 42H 00000002H 0000000AH "_Rend" 04H 03H 00H 00H 00H
                                  164   CSTRUCTMEM 42H 00000002H 0000000CH "_Rsave" 04H 03H 00H 00H 00H
                                  165   CSTRUCTMEM 42H 00000002H 0000000EH "_Wend" 04H 03H 00H 00H 00H
                                  166   CSTRUCTMEM 42H 00000002H 00000010H "_Back" 05H 01H 02H 00H 00H 00H
                                  167   CSTRUCTMEM 42H 00000001H 00000012H "_Cbuf" 02H 00H 00H
                                  168   CSTRUCTMEM 42H 00000001H 00000013H "_Nback" 02H 00H 00H
                                  169   CSTRUCTMEM 43H 00000002H 00000014H "_Tmpnam" 04H 03H 00H 00H 00H
                                  170   CSTRUCTTAG 0000H 0000H 0001H 0001H 00000004H "_Notag"
                                  171   CSTRUCTMEM 42H 00000004H 00000000H "_Off" 02H 00H 02H
                                  172   CSTRUCTTAG 0000H 0000H 0000H 0008H 00000001H "_Notag"
                                  173   CSTRUCTMEM 52H 00000001H 00000000H "b0" 02H 00H 00H
                                  174   CSTRUCTMEM 52H 00000001H 00000001H "b1" 02H 00H 00H
                                  175   CSTRUCTMEM 52H 00000001H 00000002H "b2" 02H 00H 00H
                                  176   CSTRUCTMEM 52H 00000001H 00000003H "b3" 02H 00H 00H
                                  177   CSTRUCTMEM 52H 00000001H 00000004H "b4" 02H 00H 00H
                                  178   CSTRUCTMEM 52H 00000001H 00000005H "b5" 02H 00H 00H
                                  179   CSTRUCTMEM 52H 00000001H 00000006H "b6" 02H 00H 00H
                                  180   CSTRUCTMEM 52H 00000001H 00000007H "b7" 02H 00H 00H
                                  181   CUNIONTAG 0000H 0000H 0006H 0006H 00000006H "_Notag"
                                  182   CUNIONMEM 42H 00000001H "_uchar" 02H 00H 00H
                                  183   CUNIONMEM 42H 00000006H "_ucharArr" 05H 01H 06H 00H 00H 00H
                                  184   CUNIONMEM 42H 00000002H "_uint" 02H 00H 01H
                                  185   CUNIONMEM 42H 00000006H "_uintArr" 05H 01H 03H 00H 00H 01H
                                  186   CUNIONMEM 43H 00000006H "_intArr" 05H 01H 03H 00H 00H 01H
                                  187   CUNIONMEM 43H 00000004H "_float" 02H 00H 03H
                                  188   CTYPEDEF 0000H 0000H 43H "_Ptrdifft" 02H 00H 01H
                                  189   CTYPEDEF 0000H 0000H 42H "_Sizet" 02H 00H 01H
                                  190   CTYPEDEF 0000H 0000H 43H "tUartSetParam" 04H 00H 05H 05H 00H
                                  191   CTYPEDEF 0000H 0000H 42H "size_t" 02H 00H 01H
                                  192   CTYPEDEF 0000H 0000H 43H "cbfUart" 0AH 03H 00H 02H 5EH 00H 00H 00H 00H 00H 07H
                                  193   CTYPEDEF 0000H 0000H 43H "fpos_t" 04H 00H 05H 01H 00H
                                  194   CTYPEDEF 0000H 0000H 43H "cbfI2c" 0AH 03H 00H 02H 73H 00H 00H 00H 00H 00H 07H
                                  195   CTYPEDEF 0000H 0000H 03H "_Cmpfun_nf" 08H 02H 31H 00H 00H 00H 00H 00H 01H
                                  196   CTYPEDEF 0000H 0000H 03H "_Cmpfun_nn" 08H 02H 30H 00H 00H 00H 00H 00H 01H
                                  197   CTYPEDEF 0000H 0000H 03H "_Cmpfun_ff" 08H 02H 33H 00H 00H 00H 00H 00H 01H
                                  198   CTYPEDEF 0000H 0000H 03H "_Cmpfun_fn" 08H 02H 32H 00H 00H 00H 00H 00H 01H
                                  199   CTYPEDEF 0000H 0000H 43H "FILE" 04H 00H 05H 02H 00H
                                  200   CTYPEDEF 0000H 0000H 43H "div_t" 04H 00H 05H 03H 00H
                                  201   CTYPEDEF 0000H 0000H 43H "ldiv_t" 04H 00H 05H 04H 00H
                                  202   CTYPEDEF 0000H 0000H 43H "_BYTE_FIELD" 04H 00H 05H 00H 00H
                                  203   CSGLOBAL 42H 0001H "KnotsUnit" 02H 00H 00H
                                  204   CGLOBAL 00H 42H 0001H "_flgUartFin" 02H 00H 00H
                                  205   CGLOBAL 01H 00H 0001H "KMX61_WUFC" 02H 00H 00H
                                  206   CSGLOBAL 42H 0002H "i" 02H 00H 01H
                                  207   CSGLOBAL 42H 0002H "j" 02H 00H 01H
                                  208   CSGLOBAL 43H 0008H "KnotsSpeed" 02H 00H 09H
                                  209   CSGLOBAL 43H 0008H "Latitude" 02H 00H 09H
                                  210   CSGLOBAL 43H 0008H "HomeTolerance" 02H 00H 09H
                                  211   CGLOBAL 00H 43H 0004H "SensorReturn" 02H 00H 03H
                                  212   CSGLOBAL 42H 0002H "Eleveation" 02H 00H 01H
                                  213   CGLOBAL 01H 00H 0001H "KMX61_INC3_CFGDAT" 02H 00H 00H
                                  214   CGLOBAL 01H 00H 0001H "KMX61_TEMP_EN_CNTL_CFGDAT" 02H 00H 00H
                                  215   CSGLOBAL 42H 0002H "hexToDecOffset" 02H 00H 01H
                                  216   CSGLOBAL 42H 0001H "ReceiverState" 02H 00H 00H
                                  217   CSGLOBAL 42H 0001H "LonDir" 02H 00H 00H
                                  218   CGLOBAL 01H 00H 0001H "KMX61_INC1_CFGDAT" 02H 00H 00H
                                  219   CGLOBAL 01H 00H 0001H "KMX61_CNTL1_CFGDAT" 02H 00H 00H
                                  220   CSGLOBAL 42H 0002H "CheckPointIndex" 02H 00H 01H
                                  221   CGLOBAL 01H 00H 0001H "KMX61_CNTL2_CFGDAT" 02H 00H 00H
                                  222   CGLOBAL 01H 00H 0001H "KMX61_WUFC_CFGDAT" 02H 00H 00H
                                  223   CGLOBAL 01H 00H 0001H "Manufact_ID" 02H 00H 00H
                                  224   CSGLOBAL 43H 0008H "Geoid" 02H 00H 09H
                                  225   CSGLOBAL 42H 0004H "Date" 05H 01H 02H 00H 00H 01H
                                  226   CSGLOBAL 42H 0320H "val" 05H 01H 20H 03H 00H 00H
                                  227   CSGLOBAL 42H 0003H "txChar" 05H 01H 03H 00H 00H 00H
                                  228   CGLOBAL 00H 43H 0006H "uniRawSensorOut" 04H 00H 06H 06H 00H
                                  229   CGLOBAL 01H 42H 0001H "DoorOpen" 02H 00H 00H
                                  230   CGLOBAL 01H 00H 0001H "ALS0_LSB" 02H 00H 00H
                                  231   CSGLOBAL 42H 0008H "str" 05H 01H 08H 00H 00H 00H
                                  232   CGLOBAL 01H 00H 0001H "ALS0_MSB" 02H 00H 00H
                                  233   CGLOBAL 01H 00H 0001H "KMX61_BTSC" 02H 00H 00H
                                  234   CSGLOBAL 43H 0028H "LatDest" 05H 01H 05H 00H 00H 09H
                                  235   CGLOBAL 01H 00H 0001H "KMX61_ODCNTL" 02H 00H 00H
                                  236   CGLOBAL 01H 00H 0001H "KMX61_COTR" 02H 00H 00H
                                  237   CGLOBAL 01H 00H 0001H "KMX61_STATUS_REG" 02H 00H 00H
                                  238   CSGLOBAL 43H 0008H "Course" 02H 00H 09H
                                  239   CSGLOBAL 42H 0018H "GSV_Info" 05H 01H 0CH 00H 00H 01H
                                  240   CSGLOBAL 43H 0008H "PDOP" 02H 00H 09H
                                  241   CSGLOBAL 42H 0001H "isTrueNorth" 02H 00H 00H
                                  242   CGLOBAL 01H 00H 0001H "KMX61_WUFTH" 02H 00H 00H
                                  243   CSGLOBAL 42H 0001H "isBulbOn" 02H 00H 00H
                                  244   CGLOBAL 01H 00H 0001H "KMX61_STBY_REG" 02H 00H 00H
                                  245   CSGLOBAL 42H 0002H "flag" 02H 00H 01H
                                  246   CGLOBAL 01H 00H 0001H "KMX61_INC1" 02H 00H 00H
                                  247   CGLOBAL 01H 00H 0001H "KMX61_INC2" 02H 00H 00H
                                  248   CGLOBAL 01H 00H 0001H "KMX61_INC3" 02H 00H 00H
                                  249   CGLOBAL 01H 00H 0001H "KMX61_ACCEL_YOUT_H" 02H 00H 00H
                                  250   CGLOBAL 01H 00H 0001H "KMX61_ACCEL_YOUT_L" 02H 00H 00H
                                  251   CGLOBAL 01H 00H 0001H "KMX61_INS1" 02H 00H 00H
                                  252   CGLOBAL 01H 00H 0001H "KMX61_INS2" 02H 00H 00H
                                  253   CSGLOBAL 42H 0001H "LEDFlashFlag" 02H 00H 00H
                                  254   CSGLOBAL 42H 0002H "bulbIntensity" 02H 00H 01H
                                  255   CGLOBAL 01H 00H 0001H "KMX61_MAG_YOUT_H" 02H 00H 00H
                                  256   CGLOBAL 01H 00H 0001H "KMX61_MAG_YOUT_L" 02H 00H 00H
                                  257   CSGLOBAL 42H 0002H "fixQuality" 02H 00H 01H
                                  258   CGLOBAL 01H 00H 0001H "KMX61_WUFTH_CFGDAT" 02H 00H 00H
                                  259   CGLOBAL 01H 00H 0001H "KMX61_BUF_THRESH_H" 02H 00H 00H
                                  260   CGLOBAL 01H 00H 0001H "KMX61_BUF_THRESH_L" 02H 00H 00H
                                  261   CSGLOBAL 42H 0002H "checkSum" 02H 00H 01H
                                  262   CSGLOBAL 43H 0008H "VDOP" 02H 00H 09H
                                  263   CGLOBAL 01H 00H 0001H "KMX61_BUF_CLEAR" 02H 00H 00H
                                  264   CSGLOBAL 43H 0028H "LonDest" 05H 01H 05H 00H 00H 09H
                                  265   CSGLOBAL 43H 0008H "prevBulbIntensity" 02H 00H 09H
                                  266   CSGLOBAL 01H 000AH "_uartSetParam" 04H 00H 05H 05H 00H
                                  267   CSGLOBAL 43H 0008H "GroundSpeed" 02H 00H 09H
                                  268   CSGLOBAL 42H 0002H "bulbEnable" 02H 00H 01H
                                  269   CGLOBAL 01H 00H 0001H "KMX61_ODCNTL_CFGDAT" 02H 00H 00H
                                  270   CSGLOBAL 42H 0001H "SensorPlatformSelection" 02H 00H 00H
                                  271   CSGLOBAL 42H 0001H "LatLonValid" 02H 00H 00H
                                  272   CSGLOBAL 42H 0002H "Mode" 05H 01H 02H 00H 00H 00H
                                  273   CGLOBAL 01H 00H 0001H "Prox_ModeCTR" 02H 00H 00H
                                  274   CGLOBAL 01H 00H 0001H "KMX61_BTH" 02H 00H 00H
                                  275   CGLOBAL 01H 00H 0001H "KMX61_TEMP_EN_CNTL" 02H 00H 00H
                                  276   CGLOBAL 01H 00H 0001H "KMX61_CNTL1" 02H 00H 00H
                                  277   CGLOBAL 01H 00H 0001H "KMX61_CNTL2" 02H 00H 00H
                                  278   CGLOBAL 01H 00H 0001H "KMX61_XOUT_HPF_L" 02H 00H 00H
                                  279   CSGLOBAL 42H 0001H "LEDChangeFlag" 02H 00H 00H
                                  280   CGLOBAL 01H 00H 0001H "KMX61_XOUT_HPF_H" 02H 00H 00H
                                  281   CGLOBAL 01H 00H 0001H "ALS1_LSB" 02H 00H 00H
                                  282   CSGLOBAL 42H 0002H "sigDigits" 02H 00H 01H
                                  283   CSGLOBAL 42H 0001H "LatDir" 02H 00H 00H
                                  284   CGLOBAL 01H 00H 0001H "ALS1_MSB" 02H 00H 00H
                                  285   CGLOBAL 01H 42H 0002H "TimeFlag" 02H 00H 01H
                                  286   CSGLOBAL 42H 0002H "isSettingMode" 02H 00H 01H
                                  287   CSGLOBAL 42H 0002H "isNeg" 02H 00H 01H
                                  288   CGLOBAL 01H 00H 0001H "KMX61_INL" 02H 00H 00H
                                  289   CSGLOBAL 43H 0008H "MagDegrees" 02H 00H 09H
                                  290   CGLOBAL 01H 00H 0001H "KMX61_ZOUT_HPF_L" 02H 00H 00H
                                  291   CGLOBAL 01H 00H 0001H "KMX61_ZOUT_HPF_H" 02H 00H 00H
                                  292   CGLOBAL 01H 00H 0001H "KMX61_YOUT_HPF_L" 02H 00H 00H
                                  293   CGLOBAL 01H 00H 0001H "KMX61_YOUT_HPF_H" 02H 00H 00H
                                  294   CSGLOBAL 42H 0001H "MagDir" 02H 00H 00H
                                  295   CSGLOBAL 42H 0002H "wordIndex" 02H 00H 01H
                                  296   CGLOBAL 01H 00H 0001H "KMX61_SN_1" 02H 00H 00H
                                  297   CGLOBAL 01H 00H 0001H "KMX61_SN_2" 02H 00H 00H
                                  298   CGLOBAL 01H 00H 0001H "KMX61_SN_3" 02H 00H 00H
                                  299   CGLOBAL 01H 00H 0001H "KMX61_SN_4" 02H 00H 00H
                                  300   CGLOBAL 00H 42H 0001H "_flgPB2Int" 02H 00H 00H
                                  301   CSGLOBAL 42H 0001H "temp" 02H 00H 00H
                                  302   CGLOBAL 00H 42H 0001H "_flgI2CFin" 02H 00H 00H
                                  303   CSGLOBAL 42H 0001H "speedUnit" 02H 00H 00H
                                  304   CGLOBAL 01H 00H 0001H "KMX61_SELF_TEST_CFGDAT" 02H 00H 00H
                                  305   CGLOBAL 01H 00H 0001H "Prox_PS_LSB" 02H 00H 00H
                                  306   CGLOBAL 01H 00H 0001H "Prox_PS_MSB" 02H 00H 00H
                                  307   CSGLOBAL 42H 0002H "Azimuth" 02H 00H 01H
                                  308   CGLOBAL 01H 00H 0001H "KMX61_I2C_ADDR" 02H 00H 00H
                                  309   CGLOBAL 01H 00H 0001H "KMX61_BUF_READ" 02H 00H 00H
                                  310   CSGLOBAL 43H 0008H "TrueDegrees" 02H 00H 09H
                                  311   CGLOBAL 01H 00H 0001H "KMX61_TEMP_OUT_H" 02H 00H 00H
                                  312   CGLOBAL 01H 00H 0001H "KMX61_TEMP_OUT_L" 02H 00H 00H
                                  313   CGLOBAL 00H 42H 0001H "RegVal" 02H 00H 00H
                                  314   CGLOBAL 00H 42H 0001H "_reqNotHalt" 02H 00H 00H
                                  315   CSGLOBAL 43H 0008H "Longitude" 02H 00H 09H
                                  316   CSGLOBAL 43H 0008H "MSL" 02H 00H 09H
                                  317   CGLOBAL 01H 00H 0001H "KMX61_ACCEL_XOUT_H" 02H 00H 00H
                                  318   CGLOBAL 01H 00H 0001H "KMX61_ACCEL_ZOUT_H" 02H 00H 00H
                                  319   CGLOBAL 01H 00H 0001H "KMX61_ACCEL_XOUT_L" 02H 00H 00H
                                  320   CGLOBAL 01H 00H 0001H "KMX61_ACCEL_ZOUT_L" 02H 00H 00H
                                  321   CSGLOBAL 43H 0008H "MagneticVariation" 02H 00H 09H
                                  322   CGLOBAL 01H 00H 0001H "KMX61_BUF_CTRL2_CFGDAT" 02H 00H 00H
                                  323   CGLOBAL 01H 00H 0001H "KMX61_BUF_CTRL1_CFGDAT" 02H 00H 00H
                                  324   CGLOBAL 01H 00H 0001H "KMX61_BUF_CTRL1" 02H 00H 00H
                                  325   CGLOBAL 01H 00H 0001H "KMX61_BUF_CTRL2" 02H 00H 00H
                                  326   CSGLOBAL 42H 0002H "SNR" 02H 00H 01H
                                  327   CSGLOBAL 42H 0014H "buffer" 05H 01H 14H 00H 00H 00H
                                  328   CSGLOBAL 42H 0001H "KMHSpeed" 02H 00H 00H
                                  329   CSGLOBAL 42H 0002H "GSV_index" 02H 00H 01H
                                  330   CSGLOBAL 42H 0064H "word" 05H 01H 64H 00H 00H 00H
                                  331   CGLOBAL 01H 00H 0001H "KMX61_BUF_STATUS_L" 02H 00H 00H
                                  332   CSGLOBAL 42H 0006H "UTC" 05H 01H 03H 00H 00H 01H
                                  333   CGLOBAL 01H 00H 0001H "KMX61_BUF_STATUS_H" 02H 00H 00H
                                  334   CGLOBAL 01H 00H 0001H "KMX61_MAG_XOUT_H" 02H 00H 00H
                                  335   CGLOBAL 01H 00H 0001H "KMX61_MAG_ZOUT_H" 02H 00H 00H
                                  336   CGLOBAL 01H 00H 0001H "KMX61_MAG_XOUT_L" 02H 00H 00H
                                  337   CGLOBAL 01H 00H 0001H "KMX61_MAG_ZOUT_L" 02H 00H 00H
                                  338   CGLOBAL 01H 00H 0001H "KMX61_SELF_TEST" 02H 00H 00H
                                  339   CSGLOBAL 42H 0002H "PRN_num" 02H 00H 01H
                                  340   CSGLOBAL 42H 0001H "SensorIntializationFlag" 02H 00H 00H
                                  341   CGLOBAL 00H 42H 0002H "timer" 02H 00H 01H
                                  342   CSGLOBAL 42H 0002H "numSat" 02H 00H 01H
                                  343   CGLOBAL 01H 00H 0001H "KMX61_WHO_AM_I" 02H 00H 00H
                                  344   CSGLOBAL 42H 0002H "GSV_numMessage" 02H 00H 01H
                                  345   CGLOBAL 01H 00H 0001H "KMX61_BUF_STATUS_REG" 02H 00H 00H
                                  346   CSGLOBAL 43H 0008H "HDOP" 02H 00H 09H
                                  347   CSGLOBAL 42H 0018H "SV_ID" 05H 01H 0CH 00H 00H 01H
                                  348   CSGLOBAL 42H 0001H "isMagNorth" 02H 00H 00H
                                  349   CFILE 0001H 000007EEH "main\\ML610111.H"
                                  350   CFILE 0002H 000000EEH "main\\stdio.h"
                                  351   CFILE 0003H 0000007AH "main\\yvals.h"
                                  352   CFILE 0004H 000000D8H "main\\stdlib.h"
                                  353   CFILE 0005H 0000006FH "uart\\uart.h"
                                  354   CFILE 0006H 00000027H "common\\common.h"
                                  355   CFILE 0007H 00000028H "main\\mcu.h"
                                  356   CFILE 0008H 00000057H "irq\\irq.h"
                                  357   CFILE 0009H 00000045H "i2c\\i2c.h"
                                  358   CFILE 000AH 000001B6H "timer\\timer.h"
                                  359   CFILE 0000H 00000582H "main\\main.c"
                                  360   
  --------------------------      361   	rseg $$main$main
                                  362   CFUNCTION 200
                                  363   
00:0000                           364   _main	:
                                  365   CBLOCK 200 1 279
                                  366   
                                  367   ;;{ 	 
                                  368   CLINEA 0000H 0001H 0117H 0001H 0004H
                                  369   CBLOCK 200 2 279
                                  370   
                                  371   ;;	Initialization(); //Ports, UART, Timers, Oscillator, Comparators, etc.
                                  372   CLINEA 0000H 0001H 0118H 0002H 0047H
00:0000 01-F0'00-00'              373   	bl	_Initialization
                                  374   
                                  375   ;;	temp = 0xC6u; //1100_0110
                                  376   CLINEA 0000H 0001H 0119H 0002H 001AH
00:0004 C6 00                     377   	mov	r0,	#0c6h
00:0006 11-90 00-00'              378   	st	r0,	NEAR _temp
                                  379   
                                  380   ;;	I2C_Write(0x38u, &Prox_ModeCTR, 1, &temp, 1); 
                                  381   CLINEA 0000H 0001H 011AH 0002H 002FH
00:000A 01 00                     382   	mov	r0,	#01h
00:000C 4E-F0                     383   	push	r0
00:000E 00'00                     384   	mov	r0,	#BYTE1 OFFSET _temp
00:0010 00'01                     385   	mov	r1,	#BYTE2 OFFSET _temp
00:0012 5E-F0                     386   	push	er0
00:0014 01 00                     387   	mov	r0,	#01h
00:0016 4E-F0                     388   	push	r0
00:0018 00'02                     389   	mov	r2,	#BYTE1 OFFSET _Prox_ModeCTR
00:001A 00'03                     390   	mov	r3,	#BYTE2 OFFSET _Prox_ModeCTR
00:001C 38 00                     391   	mov	r0,	#038h
00:001E 01-F0'00-00'              392   	bl	_I2C_Write
00:0022 06 E1                     393   	add	sp,	#6 
                                  394   
                                  395   ;;	main_clrWDT(); 
                                  396   CLINEA 0000H 0001H 011BH 0002H 0010H
00:0024 01-F0'00-00'              397   	bl	_main_clrWDT
                                  398   
                                  399   ;;	I2C_Read(0x38u, &Manufact_ID, 1, uniRawSensorOut._ucharArr, 1); 
                                  400   CLINEA 0000H 0001H 011CH 0002H 0041H
00:0028 01 00                     401   	mov	r0,	#01h
00:002A 4E-F0                     402   	push	r0
00:002C 00'00                     403   	mov	r0,	#BYTE1 OFFSET _uniRawSensorOut
00:002E 00'01                     404   	mov	r1,	#BYTE2 OFFSET _uniRawSensorOut
00:0030 5E-F0                     405   	push	er0
00:0032 01 00                     406   	mov	r0,	#01h
00:0034 4E-F0                     407   	push	r0
00:0036 00'02                     408   	mov	r2,	#BYTE1 OFFSET _Manufact_ID
00:0038 00'03                     409   	mov	r3,	#BYTE2 OFFSET _Manufact_ID
00:003A 38 00                     410   	mov	r0,	#038h
00:003C 01-F0'00-00'              411   	bl	_I2C_Read
00:0040 06 E1                     412   	add	sp,	#6 
                                  413   
                                  414   ;;	main_clrWDT(); 
                                  415   CLINEA 0000H 0001H 011DH 0002H 0010H
00:0042 01-F0'00-00'              416   	bl	_main_clrWDT
                                  417   
                                  418   ;;	I2C_Read(0x38u, &Prox_ModeCTR, 1, uniRawSensorOut._ucharArr, 1);
                                  419   CLINEA 0000H 0001H 011EH 0002H 0041H
00:0046 01 00                     420   	mov	r0,	#01h
00:0048 4E-F0                     421   	push	r0
00:004A 00'00                     422   	mov	r0,	#BYTE1 OFFSET _uniRawSensorOut
00:004C 00'01                     423   	mov	r1,	#BYTE2 OFFSET _uniRawSensorOut
00:004E 5E-F0                     424   	push	er0
00:0050 01 00                     425   	mov	r0,	#01h
00:0052 4E-F0                     426   	push	r0
00:0054 00'02                     427   	mov	r2,	#BYTE1 OFFSET _Prox_ModeCTR
00:0056 00'03                     428   	mov	r3,	#BYTE2 OFFSET _Prox_ModeCTR
00:0058 38 00                     429   	mov	r0,	#038h
00:005A 01-F0'00-00'              430   	bl	_I2C_Read
00:005E 06 E1                     431   	add	sp,	#6 
                                  432   
                                  433   ;;		main_clrWDT(); 
                                  434   CLINEA 0000H 0001H 0120H 0003H 0011H
00:0060 01-F0'00-00'              435   	bl	_main_clrWDT
                                  436   
                                  437   ;;		PB4D = 1;
                                  438   CLINEA 0000H 0001H 0121H 0003H 000BH
00:0064 C0-A0 58-F2               439   	sb	0f258h.4
                                  440   
                                  441   ;;		PA1D = 0;
                                  442   CLINEA 0000H 0001H 0122H 0003H 000BH
00:0068 92-A0 50-F2               443   	rb	0f250h.1
                                  444   
                                  445   ;;		PC2D = 1;
                                  446   CLINEA 0000H 0001H 0123H 0003H 000BH
00:006C A0-A0 60-F2               447   	sb	0f260h.2
                                  448   
                                  449   ;;		NOPms(20);
                                  450   CLINEA 0000H 0001H 0124H 0003H 000CH
00:0070 14 E0                     451   	mov	er0,	#20
00:0072 01-F0'00-00'              452   	bl	_NOPms
                                  453   
                                  454   ;;		for(i=0;i<100;i++){
                                  455   CLINEA 0000H 0001H 0125H 0003H 0015H
00:0076 00 E0                     456   	mov	er0,	#0 
00:0078 13-90 00-00'              457   	st	er0,	NEAR _i
00:007C                           458   _$L31 :
                                  459   CBLOCK 200 3 293
                                  460   
                                  461   ;;			main_clrWDT();  
                                  462   CLINEA 0000H 0001H 0126H 0004H 0013H
00:007C 01-F0'00-00'              463   	bl	_main_clrWDT
                                  464   
                                  465   ;;			NOPms(100); 
                                  466   CLINEA 0000H 0001H 0127H 0004H 000FH
00:0080 64 00                     467   	mov	r0,	#064h
00:0082 00 01                     468   	mov	r1,	#00h
00:0084 01-F0'00-00'              469   	bl	_NOPms
                                  470   CBLOCKEND 200 3 296
                                  471   
                                  472   ;;		for(i=0;i<100;i++){
                                  473   CLINEA 0000H 0000H 0125H 0003H 0015H
00:0088 12-90 00-00'              474   	l	er0,	NEAR _i
00:008C 81 E0                     475   	add	er0,	#1 
00:008E 13-90 00-00'              476   	st	er0,	NEAR _i
00:0092 64 70                     477   	cmp	r0,	#064h
00:0094 00 51                     478   	cmpc	r1,	#00h
00:0096 F2 C1                     479   	blt	_$L31
                                  480   
                                  481   ;;		PB4D = 0;
                                  482   CLINEA 0000H 0001H 0129H 0003H 000BH
00:0098 C2-A0 58-F2               483   	rb	0f258h.4
                                  484   
                                  485   ;;		PA1D = 1;
                                  486   CLINEA 0000H 0001H 012AH 0003H 000BH
00:009C 90-A0 50-F2               487   	sb	0f250h.1
                                  488   
                                  489   ;;		PC2D = 1;
                                  490   CLINEA 0000H 0001H 012BH 0003H 000BH
00:00A0 A0-A0 60-F2               491   	sb	0f260h.2
                                  492   
                                  493   ;;		NOPms(20);
                                  494   CLINEA 0000H 0001H 012CH 0003H 000CH
00:00A4 14 E0                     495   	mov	er0,	#20
00:00A6 01-F0'00-00'              496   	bl	_NOPms
                                  497   
                                  498   ;;		while(flag < 30){
                                  499   CLINEA 0000H 0000H 012EH 0001H 0001H
00:00AA 17 CE                     500   	bal	_$L121
                                  501   
                                  502   ;;		while(flag < 30){
                                  503   CLINEA 0000H 0000H 012EH 0003H 0013H
00:00AC                           504   _$L37 :
                                  505   CBLOCK 200 4 302
                                  506   
                                  507   ;;			main_clrWDT(); 
                                  508   CLINEA 0000H 0001H 012FH 0004H 0012H
00:00AC 01-F0'00-00'              509   	bl	_main_clrWDT
                                  510   
                                  511   ;;			I2C_Read(0x38u, &Prox_PS_LSB, 1, uniRawSensorOut._ucharArr, 1);
                                  512   CLINEA 0000H 0001H 0130H 0004H 0042H
00:00B0 01 00                     513   	mov	r0,	#01h
00:00B2 4E-F0                     514   	push	r0
00:00B4 00'00                     515   	mov	r0,	#BYTE1 OFFSET _uniRawSensorOut
00:00B6 00'01                     516   	mov	r1,	#BYTE2 OFFSET _uniRawSensorOut
00:00B8 5E-F0                     517   	push	er0
00:00BA 01 00                     518   	mov	r0,	#01h
00:00BC 4E-F0                     519   	push	r0
00:00BE 00'02                     520   	mov	r2,	#BYTE1 OFFSET _Prox_PS_LSB
00:00C0 00'03                     521   	mov	r3,	#BYTE2 OFFSET _Prox_PS_LSB
00:00C2 38 00                     522   	mov	r0,	#038h
00:00C4 01-F0'00-00'              523   	bl	_I2C_Read
00:00C8 06 E1                     524   	add	sp,	#6 
                                  525   
                                  526   ;;			flag = (int)uniRawSensorOut._ucharArr[0];
                                  527   CLINEA 0000H 0001H 0131H 0004H 002CH
00:00CA 10-90 00-00'              528   	l	r0,	NEAR _uniRawSensorOut
00:00CE 00 01                     529   	mov	r1,	#00h
00:00D0 13-90 00-00'              530   	st	er0,	NEAR _flag
                                  531   
                                  532   ;;			NOPms(20);
                                  533   CLINEA 0000H 0001H 0132H 0004H 000DH
00:00D4 14 E0                     534   	mov	er0,	#20
00:00D6 01-F0'00-00'              535   	bl	_NOPms
                                  536   CBLOCKEND 200 4 307
                                  537   
                                  538   ;;		while(flag < 30){
                                  539   CLINEA 0000H 0000H 012EH 0001H 0001H
00:00DA                           540   _$L121 :
00:00DA 12-90 00-00'              541   	l	er0,	NEAR _flag
00:00DE 1E 70                     542   	cmp	r0,	#01eh
00:00E0 00 51                     543   	cmpc	r1,	#00h
00:00E2 E4 C1                     544   	blt	_$L37
                                  545   
                                  546   ;;		main_clrWDT(); 
                                  547   CLINEA 0000H 0001H 0135H 0003H 0011H
00:00E4 01-F0'00-00'              548   	bl	_main_clrWDT
                                  549   
                                  550   ;;		PB4D = 0;
                                  551   CLINEA 0000H 0001H 0136H 0003H 000BH
00:00E8 C2-A0 58-F2               552   	rb	0f258h.4
                                  553   
                                  554   ;;		PA1D = 1;
                                  555   CLINEA 0000H 0001H 0137H 0003H 000BH
00:00EC 90-A0 50-F2               556   	sb	0f250h.1
                                  557   
                                  558   ;;		PC2D = 1;
                                  559   CLINEA 0000H 0001H 0138H 0003H 000BH
00:00F0 A0-A0 60-F2               560   	sb	0f260h.2
                                  561   
                                  562   ;;		NOPms(20);
                                  563   CLINEA 0000H 0001H 0139H 0003H 000CH
00:00F4 14 E0                     564   	mov	er0,	#20
00:00F6 01-F0'00-00'              565   	bl	_NOPms
                                  566   
                                  567   ;;		PB4D = 1;
                                  568   CLINEA 0000H 0001H 013CH 0003H 000BH
00:00FA C0-A0 58-F2               569   	sb	0f258h.4
                                  570   
                                  571   ;;		PA1D = 0;
                                  572   CLINEA 0000H 0001H 013DH 0003H 000BH
00:00FE 92-A0 50-F2               573   	rb	0f250h.1
                                  574   
                                  575   ;;		PC2D = 1;
                                  576   CLINEA 0000H 0001H 013EH 0003H 000BH
00:0102 A0-A0 60-F2               577   	sb	0f260h.2
                                  578   
                                  579   ;;		NOPms(20);
                                  580   CLINEA 0000H 0001H 013FH 0003H 000CH
00:0106 14 E0                     581   	mov	er0,	#20
00:0108 01-F0'00-00'              582   	bl	_NOPms
                                  583   
                                  584   ;;		PB4D = 1;
                                  585   CLINEA 0000H 0001H 0141H 0003H 000BH
00:010C C0-A0 58-F2               586   	sb	0f258h.4
                                  587   
                                  588   ;;		PA1D = 1;
                                  589   CLINEA 0000H 0001H 0142H 0003H 000BH
00:0110 90-A0 50-F2               590   	sb	0f250h.1
                                  591   
                                  592   ;;		PC2D = 0;
                                  593   CLINEA 0000H 0001H 0143H 0003H 000BH
00:0114 A2-A0 60-F2               594   	rb	0f260h.2
                                  595   
                                  596   ;;		NOPms(20);
                                  597   CLINEA 0000H 0001H 0144H 0003H 000CH
00:0118 14 E0                     598   	mov	er0,	#20
00:011A 01-F0'00-00'              599   	bl	_NOPms
                                  600   
                                  601   ;;		PB4D = 1;
                                  602   CLINEA 0000H 0001H 0146H 0003H 000BH
00:011E C0-A0 58-F2               603   	sb	0f258h.4
                                  604   
                                  605   ;;		PA1D = 1;
                                  606   CLINEA 0000H 0001H 0147H 0003H 000BH
00:0122 90-A0 50-F2               607   	sb	0f250h.1
                                  608   
                                  609   ;;		PC2D = 1; 
                                  610   CLINEA 0000H 0001H 0148H 0003H 000CH
00:0126 A0-A0 60-F2               611   	sb	0f260h.2
                                  612   
                                  613   ;;	txChar[0] = 1;
                                  614   CLINEA 0000H 0001H 014CH 0002H 000FH
00:012A 01 00                     615   	mov	r0,	#01h
00:012C 11-90 00-00'              616   	st	r0,	NEAR _txChar
                                  617   
                                  618   ;;	txChar[1] = 1;
                                  619   CLINEA 0000H 0001H 014DH 0002H 000FH
00:0130 11-90 00-00'              620   	st	r0,	NEAR _txChar+01h
                                  621   
                                  622   ;;	txChar[2] = 0;
                                  623   CLINEA 0000H 0001H 014EH 0002H 000FH
00:0134 00 00                     624   	mov	r0,	#00h
00:0136 11-90 00-00'              625   	st	r0,	NEAR _txChar+02h
                                  626   
                                  627   ;;	main_clrWDT();  
                                  628   CLINEA 0000H 0001H 014FH 0002H 0011H
00:013A 01-F0'00-00'              629   	bl	_main_clrWDT
                                  630   
                                  631   ;;	_flgUartFin = 0;
                                  632   CLINEA 0000H 0001H 0150H 0002H 0011H
00:013E 00 00                     633   	mov	r0,	#00h
00:0140 11-90 00-00'              634   	st	r0,	NEAR __flgUartFin
                                  635   
                                  636   ;;	uart_stop();  
                                  637   CLINEA 0000H 0001H 0151H 0002H 000FH
00:0144 01-F0'00-00'              638   	bl	_uart_stop
                                  639   
                                  640   ;;	uart_startSend(txChar, sizeof(txChar), _funcUartFin);
                                  641   CLINEA 0000H 0001H 0152H 0002H 0036H
00:0148 00'00                     642   	mov	r0,	#BYTE1 OFFSET __funcUartFin
00:014A 00'01                     643   	mov	r1,	#BYTE2 OFFSET __funcUartFin
00:014C 5E-F0                     644   	push	er0
00:014E 03 E2                     645   	mov	er2,	#3 
00:0150 00'00                     646   	mov	r0,	#BYTE1 OFFSET _txChar
00:0152 00'01                     647   	mov	r1,	#BYTE2 OFFSET _txChar
00:0154 01-F0'00-00'              648   	bl	_uart_startSend
00:0158 02 E1                     649   	add	sp,	#2 
                                  650   
                                  651   ;;	while(_flgUartFin != 1){
                                  652   CLINEA 0000H 0000H 0153H 0001H 0001H
00:015A 02 CE                     653   	bal	_$L122
                                  654   
                                  655   ;;	while(_flgUartFin != 1){
                                  656   CLINEA 0000H 0000H 0153H 0002H 0019H
00:015C                           657   _$L41 :
                                  658   CBLOCK 200 5 339
                                  659   
                                  660   ;;		main_clrWDT(); 
                                  661   CLINEA 0000H 0001H 0154H 0003H 0011H
00:015C 01-F0'00-00'              662   	bl	_main_clrWDT
                                  663   CBLOCKEND 200 5 341
                                  664   
                                  665   ;;	while(_flgUartFin != 1){
                                  666   CLINEA 0000H 0000H 0153H 0001H 0001H
00:0160                           667   _$L122 :
00:0160 10-90 00-00'              668   	l	r0,	NEAR __flgUartFin
00:0164 01 70                     669   	cmp	r0,	#01h
00:0166 FA C8                     670   	bne	_$L41
                                  671   
                                  672   ;;	bulbIntensity = 0;
                                  673   CLINEA 0000H 0001H 0156H 0002H 0013H
00:0168 00 E0                     674   	mov	er0,	#0 
00:016A 13-90 00-00'              675   	st	er0,	NEAR _bulbIntensity
                                  676   
                                  677   ;;	i = 0;
                                  678   CLINEA 0000H 0001H 0157H 0002H 0007H
00:016E 13-90 00-00'              679   	st	er0,	NEAR _i
                                  680   
                                  681   ;;	while(1){ 
                                  682   CLINEA 0000H 0001H 0158H 0002H 000BH
00:0172 00-F0'00-00'              683   	b	_$L43
00:0176                           684   _$L45 :
                                  685   CBLOCK 200 6 344
                                  686   
                                  687   ;;			main_clrWDT(); 
                                  688   CLINEA 0000H 0001H 0159H 0004H 0012H
00:0176 01-F0'00-00'              689   	bl	_main_clrWDT
                                  690   
                                  691   ;;			I2C_Read(0x38u, &Prox_PS_LSB, 1, uniRawSensorOut._ucharArr, 1);
                                  692   CLINEA 0000H 0001H 015AH 0004H 0042H
00:017A 01 00                     693   	mov	r0,	#01h
00:017C 4E-F0                     694   	push	r0
00:017E 00'00                     695   	mov	r0,	#BYTE1 OFFSET _uniRawSensorOut
00:0180 00'01                     696   	mov	r1,	#BYTE2 OFFSET _uniRawSensorOut
00:0182 5E-F0                     697   	push	er0
00:0184 01 00                     698   	mov	r0,	#01h
00:0186 4E-F0                     699   	push	r0
00:0188 00'02                     700   	mov	r2,	#BYTE1 OFFSET _Prox_PS_LSB
00:018A 00'03                     701   	mov	r3,	#BYTE2 OFFSET _Prox_PS_LSB
00:018C 38 00                     702   	mov	r0,	#038h
00:018E 01-F0'00-00'              703   	bl	_I2C_Read
00:0192 06 E1                     704   	add	sp,	#6 
                                  705   
                                  706   ;;			main_clrWDT(); 
                                  707   CLINEA 0000H 0001H 015BH 0004H 0012H
00:0194 01-F0'00-00'              708   	bl	_main_clrWDT
                                  709   
                                  710   ;;			if((int)uniRawSensorOut._ucharArr[0] > 10){
                                  711   CLINEA 0000H 0001H 015CH 0004H 002EH
00:0198 10-90 00-00'              712   	l	r0,	NEAR _uniRawSensorOut
00:019C 0A 70                     713   	cmp	r0,	#0ah
00:019E 02 C2                     714   	bgt	_$M1
00:01A0 00-F0'00-00'              715   	b	_$L74
00:01A4                           716   _$M1 :
                                  717   CBLOCK 200 7 348
                                  718   
                                  719   ;;				i = 0;
                                  720   CLINEA 0000H 0001H 015DH 0005H 000AH
00:01A4 00 E0                     721   	mov	er0,	#0 
00:01A6 13-90 00-00'              722   	st	er0,	NEAR _i
                                  723   
                                  724   ;;				BLINK();
                                  725   CLINEA 0000H 0001H 015EH 0005H 000CH
00:01AA 01-F0'00-00'              726   	bl	_BLINK
                                  727   
                                  728   ;;				main_clrWDT();  
                                  729   CLINEA 0000H 0001H 015FH 0005H 0014H
00:01AE 01-F0'00-00'              730   	bl	_main_clrWDT
                                  731   
                                  732   ;;			    while((int)uniRawSensorOut._ucharArr[0] > 5){ 
                                  733   CLINEA 0000H 0000H 0161H 0001H 0001H
00:01B2 1C CE                     734   	bal	_$L53
                                  735   
                                  736   ;;			    while((int)uniRawSensorOut._ucharArr[0] > 5){ 
                                  737   CLINEA 0000H 0000H 0161H 0008H 0035H
00:01B4                           738   _$L51 :
                                  739   CBLOCK 200 8 353
                                  740   
                                  741   ;;					main_clrWDT(); 
                                  742   CLINEA 0000H 0001H 0162H 0006H 0014H
00:01B4 01-F0'00-00'              743   	bl	_main_clrWDT
                                  744   
                                  745   ;;					I2C_Read(0x38u, &Prox_PS_LSB, 1, uniRawSensorOut._ucharArr, 1);
                                  746   CLINEA 0000H 0001H 0163H 0006H 0044H
00:01B8 01 00                     747   	mov	r0,	#01h
00:01BA 4E-F0                     748   	push	r0
00:01BC 00'00                     749   	mov	r0,	#BYTE1 OFFSET _uniRawSensorOut
00:01BE 00'01                     750   	mov	r1,	#BYTE2 OFFSET _uniRawSensorOut
00:01C0 5E-F0                     751   	push	er0
00:01C2 01 00                     752   	mov	r0,	#01h
00:01C4 4E-F0                     753   	push	r0
00:01C6 00'02                     754   	mov	r2,	#BYTE1 OFFSET _Prox_PS_LSB
00:01C8 00'03                     755   	mov	r3,	#BYTE2 OFFSET _Prox_PS_LSB
00:01CA 38 00                     756   	mov	r0,	#038h
00:01CC 01-F0'00-00'              757   	bl	_I2C_Read
00:01D0 06 E1                     758   	add	sp,	#6 
                                  759   
                                  760   ;;				    BLINK(); 
                                  761   CLINEA 0000H 0001H 0164H 0009H 0011H
00:01D2 01-F0'00-00'              762   	bl	_BLINK
                                  763   
                                  764   ;;					i++; 
                                  765   CLINEA 0000H 0000H 0165H 0006H 000AH
00:01D6 12-90 00-00'              766   	l	er0,	NEAR _i
00:01DA 81 E0                     767   	add	er0,	#1 
00:01DC 13-90 00-00'              768   	st	er0,	NEAR _i
                                  769   
                                  770   ;;					if(i>50)
                                  771   CLINEA 0000H 0001H 0166H 0006H 000DH
00:01E0 32 70                     772   	cmp	r0,	#032h
00:01E2 00 51                     773   	cmpc	r1,	#00h
00:01E4 03 C3                     774   	ble	_$L53
                                  775   
                                  776   ;;						uniRawSensorOut._ucharArr[0] = 0;
                                  777   CLINEA 0000H 0001H 0167H 0007H 0027H
00:01E6 00 00                     778   	mov	r0,	#00h
00:01E8 11-90 00-00'              779   	st	r0,	NEAR _uniRawSensorOut
00:01EC                           780   _$L53 :
                                  781   CBLOCKEND 200 8 360
                                  782   
                                  783   ;;			    while((int)uniRawSensorOut._ucharArr[0] > 5){ 
                                  784   CLINEA 0000H 0000H 0161H 0000H 0000H
00:01EC 10-90 00-00'              785   	l	r0,	NEAR _uniRawSensorOut
00:01F0 05 70                     786   	cmp	r0,	#05h
00:01F2 E0 C2                     787   	bgt	_$L51
                                  788   
                                  789   ;;				if(i>50){
                                  790   CLINEA 0000H 0001H 0169H 0005H 000DH
00:01F4 12-90 00-00'              791   	l	er0,	NEAR _i
00:01F8 32 70                     792   	cmp	r0,	#032h
00:01FA 00 51                     793   	cmpc	r1,	#00h
00:01FC 02 C2                     794   	bgt	_$M2
00:01FE 00-F0'00-00'              795   	b	_$L55
00:0202                           796   _$M2 :
                                  797   CBLOCK 200 9 361
                                  798   
                                  799   ;;					BLINK_SLOW(); 
                                  800   CLINEA 0000H 0001H 016AH 0006H 0013H
00:0202 01-F0'00-00'              801   	bl	_BLINK_SLOW
                                  802   
                                  803   ;;					txChar[0] = 'c'; 
                                  804   CLINEA 0000H 0001H 016CH 0006H 0016H
00:0206 63 00                     805   	mov	r0,	#063h
00:0208 11-90 00-00'              806   	st	r0,	NEAR _txChar
                                  807   
                                  808   ;;					main_clrWDT();  
                                  809   CLINEA 0000H 0001H 016DH 0006H 0015H
00:020C 01-F0'00-00'              810   	bl	_main_clrWDT
                                  811   
                                  812   ;;					_flgUartFin = 0;
                                  813   CLINEA 0000H 0001H 016EH 0006H 0015H
00:0210 00 00                     814   	mov	r0,	#00h
00:0212 11-90 00-00'              815   	st	r0,	NEAR __flgUartFin
                                  816   
                                  817   ;;					uart_stop();  
                                  818   CLINEA 0000H 0001H 016FH 0006H 0013H
00:0216 01-F0'00-00'              819   	bl	_uart_stop
                                  820   
                                  821   ;;					uart_startSend(txChar, sizeof(txChar), _funcUartFin);
                                  822   CLINEA 0000H 0001H 0170H 0006H 003AH
00:021A 00'00                     823   	mov	r0,	#BYTE1 OFFSET __funcUartFin
00:021C 00'01                     824   	mov	r1,	#BYTE2 OFFSET __funcUartFin
00:021E 5E-F0                     825   	push	er0
00:0220 03 E2                     826   	mov	er2,	#3 
00:0222 00'00                     827   	mov	r0,	#BYTE1 OFFSET _txChar
00:0224 00'01                     828   	mov	r1,	#BYTE2 OFFSET _txChar
00:0226 01-F0'00-00'              829   	bl	_uart_startSend
00:022A 02 E1                     830   	add	sp,	#2 
                                  831   
                                  832   ;;					while(_flgUartFin != 1){
                                  833   CLINEA 0000H 0000H 0171H 0001H 0001H
00:022C 02 CE                     834   	bal	_$L123
                                  835   
                                  836   ;;					while(_flgUartFin != 1){
                                  837   CLINEA 0000H 0000H 0171H 0006H 001DH
00:022E                           838   _$L59 :
                                  839   CBLOCK 200 10 369
                                  840   
                                  841   ;;						main_clrWDT(); 
                                  842   CLINEA 0000H 0001H 0172H 0007H 0015H
00:022E 01-F0'00-00'              843   	bl	_main_clrWDT
                                  844   CBLOCKEND 200 10 371
                                  845   
                                  846   ;;					while(_flgUartFin != 1){
                                  847   CLINEA 0000H 0000H 0171H 0001H 0001H
00:0232                           848   _$L123 :
00:0232 10-90 00-00'              849   	l	r0,	NEAR __flgUartFin
00:0236 01 70                     850   	cmp	r0,	#01h
00:0238 FA C8                     851   	bne	_$L59
                                  852   
                                  853   ;;					i=0;
                                  854   CLINEA 0000H 0001H 0175H 0006H 0009H
00:023A 00 E0                     855   	mov	er0,	#0 
00:023C 13-90 00-00'              856   	st	er0,	NEAR _i
                                  857   
                                  858   ;;					main_clrWDT(); 
                                  859   CLINEA 0000H 0001H 0176H 0006H 0014H
00:0240 01-F0'00-00'              860   	bl	_main_clrWDT
                                  861   
                                  862   ;;					I2C_Read(0x38u, &Prox_PS_LSB, 1, uniRawSensorOut._ucharArr, 1);
                                  863   CLINEA 0000H 0001H 0177H 0006H 0044H
00:0244 01 00                     864   	mov	r0,	#01h
00:0246 4E-F0                     865   	push	r0
00:0248 00'00                     866   	mov	r0,	#BYTE1 OFFSET _uniRawSensorOut
00:024A 00'01                     867   	mov	r1,	#BYTE2 OFFSET _uniRawSensorOut
00:024C 5E-F0                     868   	push	er0
00:024E 01 00                     869   	mov	r0,	#01h
00:0250 4E-F0                     870   	push	r0
00:0252 00'02                     871   	mov	r2,	#BYTE1 OFFSET _Prox_PS_LSB
00:0254 00'03                     872   	mov	r3,	#BYTE2 OFFSET _Prox_PS_LSB
00:0256 38 00                     873   	mov	r0,	#038h
00:0258 01-F0'00-00'              874   	bl	_I2C_Read
00:025C 06 E1                     875   	add	sp,	#6 
                                  876   
                                  877   ;;					while((int)uniRawSensorOut._ucharArr[0] < 10){
                                  878   CLINEA 0000H 0000H 0178H 0001H 0001H
00:025E 36 CE                     879   	bal	_$L124
                                  880   
                                  881   ;;					while((int)uniRawSensorOut._ucharArr[0] < 10){
                                  882   CLINEA 0000H 0000H 0178H 0006H 0033H
00:0260                           883   _$L63 :
                                  884   CBLOCK 200 11 376
                                  885   
                                  886   ;;						main_clrWDT(); 
                                  887   CLINEA 0000H 0001H 0179H 0007H 0015H
00:0260 01-F0'00-00'              888   	bl	_main_clrWDT
                                  889   
                                  890   ;;						I2C_Read(0x38u, &Prox_PS_LSB, 1, uniRawSensorOut._ucharArr, 1);
                                  891   CLINEA 0000H 0001H 017AH 0007H 0045H
00:0264 01 00                     892   	mov	r0,	#01h
00:0266 4E-F0                     893   	push	r0
00:0268 00'00                     894   	mov	r0,	#BYTE1 OFFSET _uniRawSensorOut
00:026A 00'01                     895   	mov	r1,	#BYTE2 OFFSET _uniRawSensorOut
00:026C 5E-F0                     896   	push	er0
00:026E 01 00                     897   	mov	r0,	#01h
00:0270 4E-F0                     898   	push	r0
00:0272 00'02                     899   	mov	r2,	#BYTE1 OFFSET _Prox_PS_LSB
00:0274 00'03                     900   	mov	r3,	#BYTE2 OFFSET _Prox_PS_LSB
00:0276 38 00                     901   	mov	r0,	#038h
00:0278 01-F0'00-00'              902   	bl	_I2C_Read
00:027C 06 E1                     903   	add	sp,	#6 
                                  904   
                                  905   ;;						main_clrWDT(); 
                                  906   CLINEA 0000H 0001H 017CH 0007H 0015H
00:027E 01-F0'00-00'              907   	bl	_main_clrWDT
                                  908   
                                  909   ;;						PB4D = 0;
                                  910   CLINEA 0000H 0001H 017DH 0007H 000FH
00:0282 C2-A0 58-F2               911   	rb	0f258h.4
                                  912   
                                  913   ;;						PA1D = 1;
                                  914   CLINEA 0000H 0001H 017EH 0007H 000FH
00:0286 90-A0 50-F2               915   	sb	0f250h.1
                                  916   
                                  917   ;;						PC2D = 1;
                                  918   CLINEA 0000H 0001H 017FH 0007H 000FH
00:028A A0-A0 60-F2               919   	sb	0f260h.2
                                  920   
                                  921   ;;						NOPms(20);
                                  922   CLINEA 0000H 0001H 0180H 0007H 0010H
00:028E 14 E0                     923   	mov	er0,	#20
00:0290 01-F0'00-00'              924   	bl	_NOPms
                                  925   
                                  926   ;;						PB4D = 1;
                                  927   CLINEA 0000H 0001H 0183H 0007H 000FH
00:0294 C0-A0 58-F2               928   	sb	0f258h.4
                                  929   
                                  930   ;;						PA1D = 0;
                                  931   CLINEA 0000H 0001H 0184H 0007H 000FH
00:0298 92-A0 50-F2               932   	rb	0f250h.1
                                  933   
                                  934   ;;						PC2D = 1;
                                  935   CLINEA 0000H 0001H 0185H 0007H 000FH
00:029C A0-A0 60-F2               936   	sb	0f260h.2
                                  937   
                                  938   ;;						NOPms(20);
                                  939   CLINEA 0000H 0001H 0186H 0007H 0010H
00:02A0 14 E0                     940   	mov	er0,	#20
00:02A2 01-F0'00-00'              941   	bl	_NOPms
                                  942   
                                  943   ;;						PB4D = 1;
                                  944   CLINEA 0000H 0001H 0188H 0007H 000FH
00:02A6 C0-A0 58-F2               945   	sb	0f258h.4
                                  946   
                                  947   ;;						PA1D = 1;
                                  948   CLINEA 0000H 0001H 0189H 0007H 000FH
00:02AA 90-A0 50-F2               949   	sb	0f250h.1
                                  950   
                                  951   ;;						PC2D = 0;
                                  952   CLINEA 0000H 0001H 018AH 0007H 000FH
00:02AE A2-A0 60-F2               953   	rb	0f260h.2
                                  954   
                                  955   ;;						NOPms(20);
                                  956   CLINEA 0000H 0001H 018BH 0007H 0010H
00:02B2 14 E0                     957   	mov	er0,	#20
00:02B4 01-F0'00-00'              958   	bl	_NOPms
                                  959   
                                  960   ;;						PB4D = 1;
                                  961   CLINEA 0000H 0001H 018DH 0007H 000FH
00:02B8 C0-A0 58-F2               962   	sb	0f258h.4
                                  963   
                                  964   ;;						PA1D = 1;
                                  965   CLINEA 0000H 0001H 018EH 0007H 000FH
00:02BC 90-A0 50-F2               966   	sb	0f250h.1
                                  967   
                                  968   ;;						PC2D = 1; 
                                  969   CLINEA 0000H 0001H 018FH 0007H 0010H
00:02C0 A0-A0 60-F2               970   	sb	0f260h.2
                                  971   
                                  972   ;;						NOPms(100); 
                                  973   CLINEA 0000H 0001H 0191H 0007H 0012H
00:02C4 64 00                     974   	mov	r0,	#064h
00:02C6 00 01                     975   	mov	r1,	#00h
00:02C8 01-F0'00-00'              976   	bl	_NOPms
                                  977   CBLOCKEND 200 11 402
                                  978   
                                  979   ;;					while((int)uniRawSensorOut._ucharArr[0] < 10){
                                  980   CLINEA 0000H 0000H 0178H 0001H 0001H
00:02CC                           981   _$L124 :
00:02CC 10-90 00-00'              982   	l	r0,	NEAR _uniRawSensorOut
00:02D0 0A 70                     983   	cmp	r0,	#0ah
00:02D2 C6 C1                     984   	blt	_$L63
                                  985   
                                  986   ;;					txChar[0] = 'd';
                                  987   CLINEA 0000H 0001H 0194H 0006H 0015H
00:02D4 64 00                     988   	mov	r0,	#064h
00:02D6 11-90 00-00'              989   	st	r0,	NEAR _txChar
                                  990   
                                  991   ;;					main_clrWDT();  
                                  992   CLINEA 0000H 0001H 0195H 0006H 0015H
00:02DA 01-F0'00-00'              993   	bl	_main_clrWDT
                                  994   
                                  995   ;;					_flgUartFin = 0;
                                  996   CLINEA 0000H 0001H 0196H 0006H 0015H
00:02DE 00 00                     997   	mov	r0,	#00h
00:02E0 11-90 00-00'              998   	st	r0,	NEAR __flgUartFin
                                  999   
                                 1000   ;;					uart_stop();  
                                 1001   CLINEA 0000H 0001H 0197H 0006H 0013H
00:02E4 01-F0'00-00'             1002   	bl	_uart_stop
                                 1003   
                                 1004   ;;					uart_startSend(txChar, sizeof(txChar), _funcUartFin);
                                 1005   CLINEA 0000H 0001H 0198H 0006H 003AH
00:02E8 00'00                    1006   	mov	r0,	#BYTE1 OFFSET __funcUartFin
00:02EA 00'01                    1007   	mov	r1,	#BYTE2 OFFSET __funcUartFin
00:02EC 5E-F0                    1008   	push	er0
00:02EE 03 E2                    1009   	mov	er2,	#3 
00:02F0 00'00                    1010   	mov	r0,	#BYTE1 OFFSET _txChar
00:02F2 00'01                    1011   	mov	r1,	#BYTE2 OFFSET _txChar
00:02F4 01-F0'00-00'             1012   	bl	_uart_startSend
00:02F8 02 E1                    1013   	add	sp,	#2 
                                 1014   
                                 1015   ;;					while(_flgUartFin != 1){
                                 1016   CLINEA 0000H 0000H 0199H 0001H 0001H
00:02FA 02 CE                    1017   	bal	_$L125
                                 1018   
                                 1019   ;;					while(_flgUartFin != 1){
                                 1020   CLINEA 0000H 0000H 0199H 0006H 001DH
00:02FC                          1021   _$L67 :
                                 1022   CBLOCK 200 12 409
                                 1023   
                                 1024   ;;						main_clrWDT(); 
                                 1025   CLINEA 0000H 0001H 019AH 0007H 0015H
00:02FC 01-F0'00-00'             1026   	bl	_main_clrWDT
                                 1027   CBLOCKEND 200 12 411
                                 1028   
                                 1029   ;;					while(_flgUartFin != 1){
                                 1030   CLINEA 0000H 0000H 0199H 0001H 0001H
00:0300                          1031   _$L125 :
00:0300 10-90 00-00'             1032   	l	r0,	NEAR __flgUartFin
00:0304 01 70                    1033   	cmp	r0,	#01h
00:0306 FA C8                    1034   	bne	_$L67
                                 1035   
                                 1036   ;;					BLINK_SLOW();   
                                 1037   CLINEA 0000H 0001H 019DH 0006H 0015H
00:0308 01-F0'00-00'             1038   	bl	_BLINK_SLOW
                                 1039   
                                 1040   ;;				}else{   
                                 1041   CLINEA 0000H 0000H 019EH 0005H 000DH
00:030C 0B CE                    1042   	bal	_$L72
00:030E                          1043   _$L55 :
                                 1044   CBLOCK 200 13 414
                                 1045   
                                 1046   ;;					if(txChar[0] != 'a'){
                                 1047   CLINEA 0000H 0001H 019FH 0006H 001AH
00:030E 10-90 00-00'             1048   	l	r0,	NEAR _txChar
00:0312 61 70                    1049   	cmp	r0,	#061h
00:0314 04 C9                    1050   	beq	_$L70
                                 1051   CBLOCK 200 14 415
                                 1052   
                                 1053   ;;						txChar[0] = 'a'; 
                                 1054   CLINEA 0000H 0001H 01A0H 0007H 0017H
00:0316 61 00                    1055   	mov	r0,	#061h
00:0318 11-90 00-00'             1056   	st	r0,	NEAR _txChar
                                 1057   CBLOCKEND 200 14 417
                                 1058   
                                 1059   ;;					}else{
                                 1060   CLINEA 0000H 0000H 01A1H 0006H 000BH
00:031C 03 CE                    1061   	bal	_$L72
00:031E                          1062   _$L70 :
                                 1063   CBLOCK 200 15 417
                                 1064   
                                 1065   ;;						txChar[0] = 'b';  
                                 1066   CLINEA 0000H 0001H 01A2H 0007H 0018H
00:031E 62 00                    1067   	mov	r0,	#062h
00:0320 11-90 00-00'             1068   	st	r0,	NEAR _txChar
                                 1069   CBLOCKEND 200 15 419
                                 1070   
                                 1071   ;;					}
                                 1072   CLINEA 0000H 0000H 01A3H 0006H 0006H
00:0324                          1073   _$L72 :
                                 1074   CBLOCKEND 200 13 420
                                 1075   
                                 1076   ;;				main_clrWDT();  
                                 1077   CLINEA 0000H 0001H 01A6H 0005H 0014H
00:0324 01-F0'00-00'             1078   	bl	_main_clrWDT
                                 1079   CBLOCKEND 200 9 533
                                 1080   
                                 1081   ;;				_flgUartFin = 0;
                                 1082   CLINEA 0000H 0001H 01A7H 0005H 0014H
00:0328 00 00                    1083   	mov	r0,	#00h
00:032A 11-90 00-00'             1084   	st	r0,	NEAR __flgUartFin
                                 1085   
                                 1086   ;;				uart_stop();  
                                 1087   CLINEA 0000H 0001H 01A8H 0005H 0012H
00:032E 01-F0'00-00'             1088   	bl	_uart_stop
                                 1089   
                                 1090   ;;				uart_startSend(txChar, sizeof(txChar), _funcUartFin);
                                 1091   CLINEA 0000H 0001H 01A9H 0005H 0039H
00:0332 00'00                    1092   	mov	r0,	#BYTE1 OFFSET __funcUartFin
00:0334 00'01                    1093   	mov	r1,	#BYTE2 OFFSET __funcUartFin
00:0336 5E-F0                    1094   	push	er0
00:0338 03 E2                    1095   	mov	er2,	#3 
00:033A 00'00                    1096   	mov	r0,	#BYTE1 OFFSET _txChar
00:033C 00'01                    1097   	mov	r1,	#BYTE2 OFFSET _txChar
00:033E 01-F0'00-00'             1098   	bl	_uart_startSend
00:0342 02 E1                    1099   	add	sp,	#2 
                                 1100   
                                 1101   ;;				while(_flgUartFin != 1){
                                 1102   CLINEA 0000H 0000H 01AAH 0001H 0001H
00:0344 02 CE                    1103   	bal	_$L126
                                 1104   
                                 1105   ;;				while(_flgUartFin != 1){
                                 1106   CLINEA 0000H 0000H 01AAH 0005H 001CH
00:0346                          1107   _$L75 :
                                 1108   CBLOCK 200 16 426
                                 1109   
                                 1110   ;;					main_clrWDT(); 
                                 1111   CLINEA 0000H 0001H 01ABH 0006H 0014H
00:0346 01-F0'00-00'             1112   	bl	_main_clrWDT
                                 1113   CBLOCKEND 200 16 428
                                 1114   
                                 1115   ;;				while(_flgUartFin != 1){
                                 1116   CLINEA 0000H 0000H 01AAH 0001H 0001H
00:034A                          1117   _$L126 :
00:034A 10-90 00-00'             1118   	l	r0,	NEAR __flgUartFin
00:034E 01 70                    1119   	cmp	r0,	#01h
00:0350 FA C8                    1120   	bne	_$L75
                                 1121   
                                 1122   ;;				}   
                                 1123   CLINEA 0000H 0000H 01ACH 0005H 0008H
00:0352                          1124   _$L74 :
                                 1125   CBLOCKEND 200 7 429
                                 1126   
                                 1127   ;;			I2C_Read(0x38u, &Prox_PS_MSB, 1, uniRawSensorOut._ucharArr, 1);
                                 1128   CLINEA 0000H 0001H 01AEH 0004H 0042H
00:0352 01 00                    1129   	mov	r0,	#01h
00:0354 4E-F0                    1130   	push	r0
00:0356 00'00                    1131   	mov	r0,	#BYTE1 OFFSET _uniRawSensorOut
00:0358 00'01                    1132   	mov	r1,	#BYTE2 OFFSET _uniRawSensorOut
00:035A 5E-F0                    1133   	push	er0
00:035C 01 00                    1134   	mov	r0,	#01h
00:035E 4E-F0                    1135   	push	r0
00:0360 00'02                    1136   	mov	r2,	#BYTE1 OFFSET _Prox_PS_MSB
00:0362 00'03                    1137   	mov	r3,	#BYTE2 OFFSET _Prox_PS_MSB
00:0364 38 00                    1138   	mov	r0,	#038h
00:0366 01-F0'00-00'             1139   	bl	_I2C_Read
00:036A 06 E1                    1140   	add	sp,	#6 
                                 1141   
                                 1142   ;;			main_clrWDT(); 
                                 1143   CLINEA 0000H 0001H 01AFH 0004H 0012H
00:036C 01-F0'00-00'             1144   	bl	_main_clrWDT
                                 1145   
                                 1146   ;;			I2C_Read(0x38u, &ALS0_LSB, 1, uniRawSensorOut._ucharArr, 1);
                                 1147   CLINEA 0000H 0001H 01B0H 0004H 003FH
00:0370 01 00                    1148   	mov	r0,	#01h
00:0372 4E-F0                    1149   	push	r0
00:0374 00'00                    1150   	mov	r0,	#BYTE1 OFFSET _uniRawSensorOut
00:0376 00'01                    1151   	mov	r1,	#BYTE2 OFFSET _uniRawSensorOut
00:0378 5E-F0                    1152   	push	er0
00:037A 01 00                    1153   	mov	r0,	#01h
00:037C 4E-F0                    1154   	push	r0
00:037E 00'02                    1155   	mov	r2,	#BYTE1 OFFSET _ALS0_LSB
00:0380 00'03                    1156   	mov	r3,	#BYTE2 OFFSET _ALS0_LSB
00:0382 38 00                    1157   	mov	r0,	#038h
00:0384 01-F0'00-00'             1158   	bl	_I2C_Read
00:0388 06 E1                    1159   	add	sp,	#6 
                                 1160   
                                 1161   ;;			main_clrWDT(); 
                                 1162   CLINEA 0000H 0001H 01B1H 0004H 0012H
00:038A 01-F0'00-00'             1163   	bl	_main_clrWDT
                                 1164   
                                 1165   ;;			I2C_Read(0x38u, &ALS0_MSB, 1, uniRawSensorOut._ucharArr, 1);
                                 1166   CLINEA 0000H 0001H 01B2H 0004H 003FH
00:038E 01 00                    1167   	mov	r0,	#01h
00:0390 4E-F0                    1168   	push	r0
00:0392 00'00                    1169   	mov	r0,	#BYTE1 OFFSET _uniRawSensorOut
00:0394 00'01                    1170   	mov	r1,	#BYTE2 OFFSET _uniRawSensorOut
00:0396 5E-F0                    1171   	push	er0
00:0398 01 00                    1172   	mov	r0,	#01h
00:039A 4E-F0                    1173   	push	r0
00:039C 00'02                    1174   	mov	r2,	#BYTE1 OFFSET _ALS0_MSB
00:039E 00'03                    1175   	mov	r3,	#BYTE2 OFFSET _ALS0_MSB
00:03A0 38 00                    1176   	mov	r0,	#038h
00:03A2 01-F0'00-00'             1177   	bl	_I2C_Read
00:03A6 06 E1                    1178   	add	sp,	#6 
                                 1179   
                                 1180   ;;			main_clrWDT(); 
                                 1181   CLINEA 0000H 0001H 01B3H 0004H 0012H
00:03A8 01-F0'00-00'             1182   	bl	_main_clrWDT
                                 1183   
                                 1184   ;;			I2C_Read(0x38u, &ALS1_LSB, 1, uniRawSensorOut._ucharArr, 1);
                                 1185   CLINEA 0000H 0001H 01B4H 0004H 003FH
00:03AC 01 00                    1186   	mov	r0,	#01h
00:03AE 4E-F0                    1187   	push	r0
00:03B0 00'00                    1188   	mov	r0,	#BYTE1 OFFSET _uniRawSensorOut
00:03B2 00'01                    1189   	mov	r1,	#BYTE2 OFFSET _uniRawSensorOut
00:03B4 5E-F0                    1190   	push	er0
00:03B6 01 00                    1191   	mov	r0,	#01h
00:03B8 4E-F0                    1192   	push	r0
00:03BA 00'02                    1193   	mov	r2,	#BYTE1 OFFSET _ALS1_LSB
00:03BC 00'03                    1194   	mov	r3,	#BYTE2 OFFSET _ALS1_LSB
00:03BE 38 00                    1195   	mov	r0,	#038h
00:03C0 01-F0'00-00'             1196   	bl	_I2C_Read
00:03C4 06 E1                    1197   	add	sp,	#6 
                                 1198   
                                 1199   ;;			main_clrWDT(); 
                                 1200   CLINEA 0000H 0001H 01B5H 0004H 0012H
00:03C6 01-F0'00-00'             1201   	bl	_main_clrWDT
                                 1202   
                                 1203   ;;			I2C_Read(0x38u, &ALS1_MSB, 1, uniRawSensorOut._ucharArr, 1); 
                                 1204   CLINEA 0000H 0001H 01B6H 0004H 0040H
00:03CA 01 00                    1205   	mov	r0,	#01h
00:03CC 4E-F0                    1206   	push	r0
00:03CE 00'00                    1207   	mov	r0,	#BYTE1 OFFSET _uniRawSensorOut
00:03D0 00'01                    1208   	mov	r1,	#BYTE2 OFFSET _uniRawSensorOut
00:03D2 5E-F0                    1209   	push	er0
00:03D4 01 00                    1210   	mov	r0,	#01h
00:03D6 4E-F0                    1211   	push	r0
00:03D8 00'02                    1212   	mov	r2,	#BYTE1 OFFSET _ALS1_MSB
00:03DA 00'03                    1213   	mov	r3,	#BYTE2 OFFSET _ALS1_MSB
00:03DC 38 00                    1214   	mov	r0,	#038h
00:03DE 01-F0'00-00'             1215   	bl	_I2C_Read
00:03E2 06 E1                    1216   	add	sp,	#6 
                                 1217   CBLOCKEND 200 6 439
                                 1218   
                                 1219   ;;	}
                                 1220   CLINEA 0000H 0000H 01B7H 0002H 0002H
00:03E4                          1221   _$L43 :
                                 1222   
                                 1223   ;;	while(1){ 
                                 1224   CLINEA 0000H 0000H 0158H 0000H 0000H
00:03E4 00-F0'00-00'             1225   	b	_$L45
                                 1226   
                                 1227   ;;	while(1){ 
                                 1228   CBLOCKEND 200 2 533
                                 1229   
                                 1230   ;;							break;
                                 1231   CBLOCKEND 200 23 480
                                 1232   
                                 1233   ;;							break;
                                 1234   CBLOCKEND 200 25 495
                                 1235   CBLOCKEND 200 1 533
                                 1236   CFUNCTIONEND 200
                                 1237   
                                 1238   
  --------------------------     1239   	rseg $$SWEEP_RGB$main
                                 1240   CFUNCTION 199
                                 1241   
00:0000                          1242   _SWEEP_RGB	:
                                 1243   CBLOCK 199 1 536
                                 1244   
                                 1245   ;;void SWEEP_RGB(){ 
                                 1246   CLINEA 0000H 0001H 0218H 0001H 0012H
                                 1247   CBLOCK 199 2 536
                                 1248   CBLOCKEND 199 2 537
                                 1249   
                                 1250   ;;}
                                 1251   CLINEA 0000H 0001H 0219H 0001H 0001H
00:0000 1F-FE                    1252   	rt
                                 1253   CBLOCKEND 199 1 537
                                 1254   CFUNCTIONEND 199
                                 1255   
                                 1256   
  --------------------------     1257   	rseg $$BLINK_SLOW$main
                                 1258   CFUNCTION 198
                                 1259   
00:0000                          1260   _BLINK_SLOW	:
                                 1261   CBLOCK 198 1 542
                                 1262   
                                 1263   ;;void BLINK_SLOW(void){
                                 1264   CLINEA 0000H 0001H 021EH 0001H 0016H
00:0000 CE-F8                    1265   	push	lr
                                 1266   CBLOCK 198 2 542
                                 1267   CRET 0000H
                                 1268   
                                 1269   ;;		main_clrWDT(); 
                                 1270   CLINEA 0000H 0001H 021FH 0003H 0011H
00:0002 01-F0'00-00'             1271   	bl	_main_clrWDT
                                 1272   
                                 1273   ;;		PB4D = 0;
                                 1274   CLINEA 0000H 0001H 0220H 0003H 000BH
00:0006 C2-A0 58-F2              1275   	rb	0f258h.4
                                 1276   
                                 1277   ;;		PA1D = 1;
                                 1278   CLINEA 0000H 0001H 0221H 0003H 000BH
00:000A 90-A0 50-F2              1279   	sb	0f250h.1
                                 1280   
                                 1281   ;;		PC2D = 1;
                                 1282   CLINEA 0000H 0001H 0222H 0003H 000BH
00:000E A0-A0 60-F2              1283   	sb	0f260h.2
                                 1284   
                                 1285   ;;		NOPms(100);
                                 1286   CLINEA 0000H 0001H 0223H 0003H 000DH
00:0012 64 00                    1287   	mov	r0,	#064h
00:0014 00 01                    1288   	mov	r1,	#00h
00:0016 01-F0'00-00'             1289   	bl	_NOPms
                                 1290   
                                 1291   ;;		NOPms(100);
                                 1292   CLINEA 0000H 0001H 0224H 0003H 000DH
00:001A 64 00                    1293   	mov	r0,	#064h
00:001C 00 01                    1294   	mov	r1,	#00h
00:001E 01-F0'00-00'             1295   	bl	_NOPms
                                 1296   
                                 1297   ;;		NOPms(100);
                                 1298   CLINEA 0000H 0001H 0225H 0003H 000DH
00:0022 64 00                    1299   	mov	r0,	#064h
00:0024 00 01                    1300   	mov	r1,	#00h
00:0026 01-F0'00-00'             1301   	bl	_NOPms
                                 1302   
                                 1303   ;;		NOPms(100);
                                 1304   CLINEA 0000H 0001H 0226H 0003H 000DH
00:002A 64 00                    1305   	mov	r0,	#064h
00:002C 00 01                    1306   	mov	r1,	#00h
00:002E 01-F0'00-00'             1307   	bl	_NOPms
                                 1308   
                                 1309   ;;		NOPms(100);
                                 1310   CLINEA 0000H 0001H 0227H 0003H 000DH
00:0032 64 00                    1311   	mov	r0,	#064h
00:0034 00 01                    1312   	mov	r1,	#00h
00:0036 01-F0'00-00'             1313   	bl	_NOPms
                                 1314   
                                 1315   ;;		PB4D = 1;
                                 1316   CLINEA 0000H 0001H 0229H 0003H 000BH
00:003A C0-A0 58-F2              1317   	sb	0f258h.4
                                 1318   
                                 1319   ;;		PA1D = 0;
                                 1320   CLINEA 0000H 0001H 022AH 0003H 000BH
00:003E 92-A0 50-F2              1321   	rb	0f250h.1
                                 1322   
                                 1323   ;;		PC2D = 1;
                                 1324   CLINEA 0000H 0001H 022BH 0003H 000BH
00:0042 A0-A0 60-F2              1325   	sb	0f260h.2
                                 1326   
                                 1327   ;;		NOPms(100);
                                 1328   CLINEA 0000H 0001H 022CH 0003H 000DH
00:0046 64 00                    1329   	mov	r0,	#064h
00:0048 00 01                    1330   	mov	r1,	#00h
00:004A 01-F0'00-00'             1331   	bl	_NOPms
                                 1332   
                                 1333   ;;		NOPms(100);
                                 1334   CLINEA 0000H 0001H 022DH 0003H 000DH
00:004E 64 00                    1335   	mov	r0,	#064h
00:0050 00 01                    1336   	mov	r1,	#00h
00:0052 01-F0'00-00'             1337   	bl	_NOPms
                                 1338   
                                 1339   ;;		NOPms(100);
                                 1340   CLINEA 0000H 0001H 022EH 0003H 000DH
00:0056 64 00                    1341   	mov	r0,	#064h
00:0058 00 01                    1342   	mov	r1,	#00h
00:005A 01-F0'00-00'             1343   	bl	_NOPms
                                 1344   
                                 1345   ;;		NOPms(100);
                                 1346   CLINEA 0000H 0001H 022FH 0003H 000DH
00:005E 64 00                    1347   	mov	r0,	#064h
00:0060 00 01                    1348   	mov	r1,	#00h
00:0062 01-F0'00-00'             1349   	bl	_NOPms
                                 1350   
                                 1351   ;;		NOPms(100);
                                 1352   CLINEA 0000H 0001H 0230H 0003H 000DH
00:0066 64 00                    1353   	mov	r0,	#064h
00:0068 00 01                    1354   	mov	r1,	#00h
00:006A 01-F0'00-00'             1355   	bl	_NOPms
                                 1356   
                                 1357   ;;		PB4D = 1;
                                 1358   CLINEA 0000H 0001H 0232H 0003H 000BH
00:006E C0-A0 58-F2              1359   	sb	0f258h.4
                                 1360   
                                 1361   ;;		PA1D = 1;
                                 1362   CLINEA 0000H 0001H 0233H 0003H 000BH
00:0072 90-A0 50-F2              1363   	sb	0f250h.1
                                 1364   
                                 1365   ;;		PC2D = 0;
                                 1366   CLINEA 0000H 0001H 0234H 0003H 000BH
00:0076 A2-A0 60-F2              1367   	rb	0f260h.2
                                 1368   
                                 1369   ;;		NOPms(100);
                                 1370   CLINEA 0000H 0001H 0235H 0003H 000DH
00:007A 64 00                    1371   	mov	r0,	#064h
00:007C 00 01                    1372   	mov	r1,	#00h
00:007E 01-F0'00-00'             1373   	bl	_NOPms
                                 1374   
                                 1375   ;;		NOPms(100);
                                 1376   CLINEA 0000H 0001H 0236H 0003H 000DH
00:0082 64 00                    1377   	mov	r0,	#064h
00:0084 00 01                    1378   	mov	r1,	#00h
00:0086 01-F0'00-00'             1379   	bl	_NOPms
                                 1380   
                                 1381   ;;		NOPms(100);
                                 1382   CLINEA 0000H 0001H 0237H 0003H 000DH
00:008A 64 00                    1383   	mov	r0,	#064h
00:008C 00 01                    1384   	mov	r1,	#00h
00:008E 01-F0'00-00'             1385   	bl	_NOPms
                                 1386   
                                 1387   ;;		NOPms(100);
                                 1388   CLINEA 0000H 0001H 0238H 0003H 000DH
00:0092 64 00                    1389   	mov	r0,	#064h
00:0094 00 01                    1390   	mov	r1,	#00h
00:0096 01-F0'00-00'             1391   	bl	_NOPms
                                 1392   
                                 1393   ;;		NOPms(100);
                                 1394   CLINEA 0000H 0001H 0239H 0003H 000DH
00:009A 64 00                    1395   	mov	r0,	#064h
00:009C 00 01                    1396   	mov	r1,	#00h
00:009E 01-F0'00-00'             1397   	bl	_NOPms
                                 1398   
                                 1399   ;;		PB4D = 1;
                                 1400   CLINEA 0000H 0001H 023BH 0003H 000BH
00:00A2 C0-A0 58-F2              1401   	sb	0f258h.4
                                 1402   
                                 1403   ;;		PA1D = 1;
                                 1404   CLINEA 0000H 0001H 023CH 0003H 000BH
00:00A6 90-A0 50-F2              1405   	sb	0f250h.1
                                 1406   
                                 1407   ;;		PC2D = 1;
                                 1408   CLINEA 0000H 0001H 023DH 0003H 000BH
00:00AA A0-A0 60-F2              1409   	sb	0f260h.2
                                 1410   
                                 1411   ;;		NOPms(100);
                                 1412   CLINEA 0000H 0001H 023EH 0003H 000DH
00:00AE 64 00                    1413   	mov	r0,	#064h
00:00B0 00 01                    1414   	mov	r1,	#00h
00:00B2 01-F0'00-00'             1415   	bl	_NOPms
                                 1416   
                                 1417   ;;		NOPms(100);
                                 1418   CLINEA 0000H 0001H 023FH 0003H 000DH
00:00B6 64 00                    1419   	mov	r0,	#064h
00:00B8 00 01                    1420   	mov	r1,	#00h
00:00BA 01-F0'00-00'             1421   	bl	_NOPms
                                 1422   
                                 1423   ;;		NOPms(100);
                                 1424   CLINEA 0000H 0001H 0240H 0003H 000DH
00:00BE 64 00                    1425   	mov	r0,	#064h
00:00C0 00 01                    1426   	mov	r1,	#00h
00:00C2 01-F0'00-00'             1427   	bl	_NOPms
                                 1428   
                                 1429   ;;		NOPms(100);
                                 1430   CLINEA 0000H 0001H 0241H 0003H 000DH
00:00C6 64 00                    1431   	mov	r0,	#064h
00:00C8 00 01                    1432   	mov	r1,	#00h
00:00CA 01-F0'00-00'             1433   	bl	_NOPms
                                 1434   
                                 1435   ;;		NOPms(100);
                                 1436   CLINEA 0000H 0001H 0242H 0003H 000DH
00:00CE 64 00                    1437   	mov	r0,	#064h
00:00D0 00 01                    1438   	mov	r1,	#00h
00:00D2 01-F0'00-00'             1439   	bl	_NOPms
                                 1440   CBLOCKEND 198 2 579
                                 1441   
                                 1442   ;;}
                                 1443   CLINEA 0000H 0001H 0243H 0001H 0001H
00:00D6 8E-F2                    1444   	pop	pc
                                 1445   CBLOCKEND 198 1 579
                                 1446   CFUNCTIONEND 198
                                 1447   
                                 1448   
  --------------------------     1449   	rseg $$BLINK$main
                                 1450   CFUNCTION 197
                                 1451   
00:0000                          1452   _BLINK	:
                                 1453   CBLOCK 197 1 582
                                 1454   
                                 1455   ;;void BLINK(void){
                                 1456   CLINEA 0000H 0001H 0246H 0001H 0011H
00:0000 CE-F8                    1457   	push	lr
                                 1458   CBLOCK 197 2 582
                                 1459   CRET 0000H
                                 1460   
                                 1461   ;;		main_clrWDT(); 
                                 1462   CLINEA 0000H 0001H 0247H 0003H 0011H
00:0002 01-F0'00-00'             1463   	bl	_main_clrWDT
                                 1464   
                                 1465   ;;		PB4D = 0;
                                 1466   CLINEA 0000H 0001H 0248H 0003H 000BH
00:0006 C2-A0 58-F2              1467   	rb	0f258h.4
                                 1468   
                                 1469   ;;		PA1D = 1;
                                 1470   CLINEA 0000H 0001H 0249H 0003H 000BH
00:000A 90-A0 50-F2              1471   	sb	0f250h.1
                                 1472   
                                 1473   ;;		PC2D = 1;
                                 1474   CLINEA 0000H 0001H 024AH 0003H 000BH
00:000E A0-A0 60-F2              1475   	sb	0f260h.2
                                 1476   
                                 1477   ;;		NOPms(20);
                                 1478   CLINEA 0000H 0001H 024BH 0003H 000CH
00:0012 14 E0                    1479   	mov	er0,	#20
00:0014 01-F0'00-00'             1480   	bl	_NOPms
                                 1481   
                                 1482   ;;		PB4D = 1;
                                 1483   CLINEA 0000H 0001H 024DH 0003H 000BH
00:0018 C0-A0 58-F2              1484   	sb	0f258h.4
                                 1485   
                                 1486   ;;		PA1D = 0;
                                 1487   CLINEA 0000H 0001H 024EH 0003H 000BH
00:001C 92-A0 50-F2              1488   	rb	0f250h.1
                                 1489   
                                 1490   ;;		PC2D = 1;
                                 1491   CLINEA 0000H 0001H 024FH 0003H 000BH
00:0020 A0-A0 60-F2              1492   	sb	0f260h.2
                                 1493   
                                 1494   ;;		NOPms(20);
                                 1495   CLINEA 0000H 0001H 0250H 0003H 000CH
00:0024 14 E0                    1496   	mov	er0,	#20
00:0026 01-F0'00-00'             1497   	bl	_NOPms
                                 1498   
                                 1499   ;;		PB4D = 1;
                                 1500   CLINEA 0000H 0001H 0252H 0003H 000BH
00:002A C0-A0 58-F2              1501   	sb	0f258h.4
                                 1502   
                                 1503   ;;		PA1D = 1;
                                 1504   CLINEA 0000H 0001H 0253H 0003H 000BH
00:002E 90-A0 50-F2              1505   	sb	0f250h.1
                                 1506   
                                 1507   ;;		PC2D = 0;
                                 1508   CLINEA 0000H 0001H 0254H 0003H 000BH
00:0032 A2-A0 60-F2              1509   	rb	0f260h.2
                                 1510   
                                 1511   ;;		NOPms(20);
                                 1512   CLINEA 0000H 0001H 0255H 0003H 000CH
00:0036 14 E0                    1513   	mov	er0,	#20
00:0038 01-F0'00-00'             1514   	bl	_NOPms
                                 1515   
                                 1516   ;;		PB4D = 1;
                                 1517   CLINEA 0000H 0001H 0257H 0003H 000BH
00:003C C0-A0 58-F2              1518   	sb	0f258h.4
                                 1519   
                                 1520   ;;		PA1D = 1;
                                 1521   CLINEA 0000H 0001H 0258H 0003H 000BH
00:0040 90-A0 50-F2              1522   	sb	0f250h.1
                                 1523   
                                 1524   ;;		PC2D = 1;
                                 1525   CLINEA 0000H 0001H 0259H 0003H 000BH
00:0044 A0-A0 60-F2              1526   	sb	0f260h.2
                                 1527   CBLOCKEND 197 2 602
                                 1528   
                                 1529   ;;}
                                 1530   CLINEA 0000H 0001H 025AH 0001H 0001H
00:0048 8E-F2                    1531   	pop	pc
                                 1532   CBLOCKEND 197 1 602
                                 1533   CFUNCTIONEND 197
                                 1534   
                                 1535   
  --------------------------     1536   	rseg $$GetUART_Command$main
                                 1537   CFUNCTION 204
                                 1538   
00:0000                          1539   _GetUART_Command	:
                                 1540   CBLOCK 204 1 604
                                 1541   
                                 1542   ;;void GetUART_Command(void){
                                 1543   CLINEA 0000H 0001H 025CH 0001H 001BH
00:0000 CE-F8                    1544   	push	lr
00:0002 6E-F4                    1545   	push	xr4
                                 1546   CBLOCK 204 2 604
                                 1547   CRET 0004H
                                 1548   
                                 1549   ;;		val[0] = 0;
                                 1550   CLINEA 0000H 0001H 025DH 0003H 000DH
00:0004 00 00                    1551   	mov	r0,	#00h
00:0006 11-90 00-00'             1552   	st	r0,	NEAR _val
                                 1553   
                                 1554   ;;		uart_stop();
                                 1555   CLINEA 0000H 0001H 025EH 0003H 000EH
00:000A 01-F0'00-00'             1556   	bl	_uart_stop
                                 1557   
                                 1558   ;;		uart_startReceive(val, 1, _funcUartFin); 
                                 1559   CLINEA 0000H 0001H 025FH 0003H 002BH
00:000E 00'00                    1560   	mov	r0,	#BYTE1 OFFSET __funcUartFin
00:0010 00'01                    1561   	mov	r1,	#BYTE2 OFFSET __funcUartFin
00:0012 5E-F0                    1562   	push	er0
00:0014 01 E2                    1563   	mov	er2,	#1 
00:0016 00'00                    1564   	mov	r0,	#BYTE1 OFFSET _val
00:0018 00'01                    1565   	mov	r1,	#BYTE2 OFFSET _val
00:001A 01-F0'00-00'             1566   	bl	_uart_startReceive
00:001E 02 E1                    1567   	add	sp,	#2 
                                 1568   
                                 1569   ;;		prevBulbIntensity = (prevBulbIntensity * 1.22437);
                                 1570   CLINEA 0000H 0001H 0260H 0003H 0034H
00:0020 0C-F0 00-00'             1571   	lea	OFFSET _prevBulbIntensity
00:0024 36-90                    1572   	l	qr0,	[ea]
00:0026 7E-F0                    1573   	push	qr0
00:0028 9E 00                    1574   	mov	r0,	#09eh
00:002A 41 01                    1575   	mov	r1,	#041h
00:002C 43 02                    1576   	mov	r2,	#043h
00:002E FF 03                    1577   	mov	r3,	#0ffh
00:0030 04 04                    1578   	mov	r4,	#04h
00:0032 97 05                    1579   	mov	r5,	#097h
00:0034 F3 06                    1580   	mov	r6,	#0f3h
00:0036 3F 07                    1581   	mov	r7,	#03fh
00:0038 7E-F0                    1582   	push	qr0
00:003A 01-F0'00-00'             1583   	bl	__dmulu8sw
00:003E 08 E1                    1584   	add	sp,	#8 
00:0040 3E-F0                    1585   	pop	qr0
00:0042 37-90                    1586   	st	qr0,	[ea]
                                 1587   
                                 1588   ;;		NOPms(10);  
                                 1589   CLINEA 0000H 0001H 0261H 0003H 000EH
00:0044 0A E0                    1590   	mov	er0,	#10
00:0046 01-F0'00-00'             1591   	bl	_NOPms
                                 1592   
                                 1593   ;;		if(val[0]){
                                 1594   CLINEA 0000H 0001H 0262H 0003H 000DH
00:004A 10-90 00-00'             1595   	l	r0,	NEAR _val
00:004E 38 C9                    1596   	beq	_$L140
                                 1597   CBLOCK 204 3 610
                                 1598   
                                 1599   ;;		    if(prevBulbIntensity > 230.0){
                                 1600   CLINEA 0000H 0001H 0263H 0007H 0024H
00:0050 0C-F0 00-00'             1601   	lea	OFFSET _prevBulbIntensity
00:0054 36-90                    1602   	l	qr0,	[ea]
00:0056 7E-F0                    1603   	push	qr0
00:0058 00 E0                    1604   	mov	er0,	#0 
00:005A 00 E2                    1605   	mov	er2,	#0 
00:005C 00 04                    1606   	mov	r4,	#00h
00:005E C0 05                    1607   	mov	r5,	#0c0h
00:0060 6C 06                    1608   	mov	r6,	#06ch
00:0062 40 07                    1609   	mov	r7,	#040h
00:0064 7E-F0                    1610   	push	qr0
00:0066 01-F0'00-00'             1611   	bl	__dcmpu8sw
00:006A 10 E1                    1612   	add	sp,	#16
00:006C 0B-A0                    1613   	mov	psw,	r0
00:006E 09 C3                    1614   	ble	_$L133
                                 1615   CBLOCK 204 4 611
                                 1616   
                                 1617   ;;				write(0,"Bulb Fully On\n",sizeof("Bulb Fully On\n"));
                                 1618   CLINEA 0000H 0001H 0264H 0005H 0039H
00:0070 0F E0                    1619   	mov	er0,	#15
00:0072 5E-F0                    1620   	push	er0
00:0074 00'02                    1621   	mov	r2,	#BYTE1 OFFSET $$S135
00:0076 00'03                    1622   	mov	r3,	#BYTE2 OFFSET $$S135
00:0078 00 E0                    1623   	mov	er0,	#0 
00:007A 01-F0'00-00'             1624   	bl	_write
00:007E 02 E1                    1625   	add	sp,	#2 
                                 1626   
                                 1627   ;;			else if(prevBulbIntensity == 0){
                                 1628   CLINEA 0000H 0001H 0266H 0004H 0023H
00:0080 1F CE                    1629   	bal	_$L140
00:0082                          1630   _$L133 :
00:0082 0C-F0 00-00'             1631   	lea	OFFSET _prevBulbIntensity
00:0086 36-90                    1632   	l	qr0,	[ea]
00:0088 7E-F0                    1633   	push	qr0
00:008A 00 E0                    1634   	mov	er0,	#0 
00:008C 00 E2                    1635   	mov	er2,	#0 
00:008E 6E-F0                    1636   	push	xr0
00:0090 6E-F0                    1637   	push	xr0
00:0092 01-F0'00-00'             1638   	bl	__dcmpu8sw
00:0096 10 E1                    1639   	add	sp,	#16
00:0098 0B-A0                    1640   	mov	psw,	r0
00:009A 09 C8                    1641   	bne	_$L137
                                 1642   CBLOCK 204 5 614
                                 1643   
                                 1644   ;;				write(0,"Bulb is Off\n",sizeof("Bulb is Off\n"));
                                 1645   CLINEA 0000H 0001H 0267H 0005H 0035H
00:009C 0D E0                    1646   	mov	er0,	#13
00:009E 5E-F0                    1647   	push	er0
00:00A0 00'02                    1648   	mov	r2,	#BYTE1 OFFSET $$S139
00:00A2 00'03                    1649   	mov	r3,	#BYTE2 OFFSET $$S139
00:00A4 00 E0                    1650   	mov	er0,	#0 
00:00A6 01-F0'00-00'             1651   	bl	_write
00:00AA 02 E1                    1652   	add	sp,	#2 
                                 1653   CBLOCKEND 204 5 616
                                 1654   
                                 1655   ;;			else{
                                 1656   CLINEA 0000H 0001H 0269H 0004H 0008H
00:00AC 09 CE                    1657   	bal	_$L140
00:00AE                          1658   _$L137 :
                                 1659   CBLOCK 204 6 617
                                 1660   
                                 1661   ;;				write(0,val,sizeof(val));
                                 1662   CLINEA 0000H 0001H 026BH 0005H 001DH
00:00AE 20 00                    1663   	mov	r0,	#020h
00:00B0 03 01                    1664   	mov	r1,	#03h
00:00B2 5E-F0                    1665   	push	er0
00:00B4 00'02                    1666   	mov	r2,	#BYTE1 OFFSET _val
00:00B6 00'03                    1667   	mov	r3,	#BYTE2 OFFSET _val
00:00B8 00 E0                    1668   	mov	er0,	#0 
00:00BA 01-F0'00-00'             1669   	bl	_write
00:00BE 02 E1                    1670   	add	sp,	#2 
                                 1671   CBLOCKEND 204 6 621
                                 1672   
                                 1673   ;;			}
                                 1674   CLINEA 0000H 0000H 026DH 0004H 0004H
00:00C0                          1675   _$L140 :
                                 1676   CBLOCKEND 204 3 622
                                 1677   CBLOCKEND 204 4 623
                                 1678   CBLOCKEND 204 2 623
                                 1679   
                                 1680   ;;}
                                 1681   CLINEA 0000H 0001H 026FH 0001H 0001H
00:00C0 2E-F4                    1682   	pop	xr4
00:00C2 8E-F2                    1683   	pop	pc
                                 1684   CBLOCKEND 204 1 623
                                 1685   CFUNCTIONEND 204
                                 1686   
                                 1687   
  --------------------------     1688   	rseg $$main_clrWDT$main
                                 1689   CFUNCTION 177
                                 1690   
00:0000                          1691   _main_clrWDT	:
                                 1692   CBLOCK 177 1 649
                                 1693   
                                 1694   ;;{
                                 1695   CLINEA 0000H 0001H 0289H 0001H 0001H
                                 1696   CBLOCK 177 2 649
                                 1697   
                                 1698   ;;	do {
                                 1699   CLINEA 0000H 0001H 028AH 0002H 0005H
00:0000                          1700   _$L144 :
                                 1701   CBLOCK 177 3 650
                                 1702   
                                 1703   ;;		WDTCON = 0x5Au;
                                 1704   CLINEA 0000H 0001H 028BH 0003H 0011H
00:0000 5A 00                    1705   	mov	r0,	#05ah
00:0002 11-90 0E-F0              1706   	st	r0,	0f00eh
                                 1707   CBLOCKEND 177 3 652
                                 1708   
                                 1709   ;;	} while (WDP != 1);
                                 1710   CLINEA 0000H 0000H 028CH 0002H 0014H
00:0006 81-A0 0E-F0              1711   	tb	0f00eh.0
00:000A FA C9                    1712   	beq	_$L144
                                 1713   
                                 1714   ;;	WDTCON = 0xA5u;
                                 1715   CLINEA 0000H 0001H 028DH 0002H 0010H
00:000C A5 00                    1716   	mov	r0,	#0a5h
00:000E 11-90 0E-F0              1717   	st	r0,	0f00eh
                                 1718   CBLOCKEND 177 2 654
                                 1719   
                                 1720   ;;}
                                 1721   CLINEA 0000H 0001H 028EH 0001H 0001H
00:0012 1F-FE                    1722   	rt
                                 1723   CBLOCKEND 177 1 654
                                 1724   CFUNCTIONEND 177
                                 1725   
                                 1726   
  --------------------------     1727   	rseg $$NOP1000$main
                                 1728   CFUNCTION 194
                                 1729   
00:0000                          1730   _NOP1000	:
                                 1731   CBLOCK 194 1 664
                                 1732   
                                 1733   ;;{
                                 1734   CLINEA 0000H 0001H 0298H 0001H 0001H
                                 1735   CBLOCK 194 2 664
                                 1736   CLOCAL 4AH 0002H 0000H 0002H "ONCNT" 02H 00H 01H
                                 1737   CBLOCKEND 194 2 671
                                 1738   
                                 1739   ;;}
                                 1740   CLINEA 0000H 0001H 029FH 0001H 0001H
00:0000 1F-FE                    1741   	rt
                                 1742   CBLOCKEND 194 1 671
                                 1743   CFUNCTIONEND 194
                                 1744   
                                 1745   
  --------------------------     1746   	rseg $$NOPms$main
                                 1747   CFUNCTION 195
                                 1748   
00:0000                          1749   _NOPms	:
                                 1750   CBLOCK 195 1 687
                                 1751   
                                 1752   ;;{
                                 1753   CLINEA 0000H 0001H 02AFH 0001H 0001H
00:0000 CE-F8                    1754   	push	lr
00:0002 6E-F4                    1755   	push	xr4
00:0004 5E-FC                    1756   	push	bp
00:0006 5E-F8                    1757   	push	er8
00:0008 05-F8                    1758   	mov	er8,	er0
                                 1759   CBLOCK 195 2 687
                                 1760   CRET 0008H
                                 1761   CARGUMENT 46H 0002H 0028H "ms" 02H 00H 01H
                                 1762   CLOCAL 46H 0002H 002AH 0002H "timerThres" 02H 00H 01H
                                 1763   CLOCAL 46H 0001H 001AH 0002H "TimeFlag" 02H 00H 00H
                                 1764   CLOCAL 46H 0002H 0026H 0002H "TempSec" 02H 00H 01H
                                 1765   CLOCAL 46H 0002H 0024H 0002H "timer" 02H 00H 01H
                                 1766   CLOCAL 4AH 0002H 0000H 0002H "timertest" 02H 00H 01H
                                 1767   
                                 1768   ;;	TempSec = ms;
                                 1769   CLINEA 0000H 0001H 02B6H 0002H 000EH
00:000A 05-F4                    1770   	mov	er4,	er0
                                 1771   
                                 1772   ;;	TimeFlag = 0;
                                 1773   CLINEA 0000H 0001H 02B7H 0002H 000EH
00:000C 00 06                    1774   	mov	r6,	#00h
                                 1775   
                                 1776   ;;	tm_init(TM_CH_NO_AB);
                                 1777   CLINEA 0000H 0001H 02B9H 0002H 0016H
00:000E 01 00                    1778   	mov	r0,	#01h
00:0010 01-F0'00-00'             1779   	bl	_tm_init
                                 1780   
                                 1781   ;;	tm_setABSource(TM_CS_HTBCLK);
                                 1782   CLINEA 0000H 0000H 018BH 0002H 0015H
00:0014 80-A0 EA-F8              1783   	sb	0f8eah.0
                                 1784   
                                 1785   ;;	tm_setABSource(TM_CS_HTBCLK);
                                 1786   CLINEA 0000H 0000H 018CH 0002H 001AH
00:0018 92-A0 EA-F8              1787   	rb	0f8eah.1
                                 1788   
                                 1789   ;;	tm_setABData(0xffff);
                                 1790   CLINEA 0000H 0000H 0155H 0002H 0025H
00:001C FF 00                    1791   	mov	r0,	#0ffh
00:001E 11-90 E8-F8              1792   	st	r0,	0f8e8h
                                 1793   
                                 1794   ;;	tm_setABData(0xffff);
                                 1795   CLINEA 0000H 0000H 0156H 0002H 0023H
00:0022 11-90 EC-F8              1796   	st	r0,	0f8ech
                                 1797   
                                 1798   ;;	if(ms < 128){
                                 1799   CLINEA 0000H 0001H 02BDH 0002H 000EH
00:0026 85-F0                    1800   	mov	er0,	er8
00:0028 80 78                    1801   	cmp	r8,	#080h
00:002A 00 59                    1802   	cmpc	r9,	#00h
00:002C 07 C0                    1803   	bge	_$L152
                                 1804   CBLOCK 195 3 701
                                 1805   
                                 1806   ;;		timerThres = 0x1FF * ms;
                                 1807   CLINEA 0000H 0001H 02BEH 0003H 001AH
00:002E 7B-91                    1808   	sllc	r1,	#07h
00:0030 7A-90                    1809   	sll	r0,	#07h
00:0032 2B-91                    1810   	sllc	r1,	#02h
00:0034 2A-90                    1811   	sll	r0,	#02h
00:0036 88-80                    1812   	sub	r0,	r8
00:0038 99-81                    1813   	subc	r1,	r9
00:003A 05-FC                    1814   	mov	bp,	er0
                                 1815   
                                 1816   ;;		TimeFlag = 0;
                                 1817   CLINEA 0000H 0001H 02BFH 0003H 000FH
                                 1818   CBLOCKEND 195 3 704
                                 1819   
                                 1820   ;;	}
                                 1821   CLINEA 0000H 0000H 02C0H 0002H 0002H
00:003C                          1822   _$L152 :
                                 1823   
                                 1824   ;;	if(ms == 128){
                                 1825   CLINEA 0000H 0001H 02C1H 0002H 000FH
00:003C 80 78                    1826   	cmp	r8,	#080h
00:003E 00 59                    1827   	cmpc	r9,	#00h
00:0040 02 C8                    1828   	bne	_$L154
                                 1829   CBLOCK 195 4 705
                                 1830   
                                 1831   ;;		timerThres = 0xFFFF;
                                 1832   CLINEA 0000H 0001H 02C2H 0003H 0016H
00:0042 7F EC                    1833   	mov	bp,	#-1
                                 1834   
                                 1835   ;;		TimeFlag = 0;
                                 1836   CLINEA 0000H 0001H 02C3H 0003H 000FH
00:0044 00 06                    1837   	mov	r6,	#00h
                                 1838   CBLOCKEND 195 4 708
                                 1839   
                                 1840   ;;	}
                                 1841   CLINEA 0000H 0000H 02C4H 0002H 0002H
00:0046                          1842   _$L154 :
                                 1843   
                                 1844   ;;	if(ms > 128){
                                 1845   CLINEA 0000H 0001H 02C5H 0002H 000EH
00:0046 80 78                    1846   	cmp	r8,	#080h
00:0048 00 59                    1847   	cmpc	r9,	#00h
00:004A 15 C3                    1848   	ble	_$L164
                                 1849   CBLOCK 195 5 709
                                 1850   
                                 1851   ;;		while(TempSec > 128){
                                 1852   CLINEA 0000H 0000H 02C6H 0001H 0001H
00:004C 04 CE                    1853   	bal	_$L174
                                 1854   
                                 1855   ;;		while(TempSec > 128){
                                 1856   CLINEA 0000H 0000H 02C6H 0003H 0017H
00:004E                          1857   _$L160 :
                                 1858   CBLOCK 195 6 710
                                 1859   
                                 1860   ;;			TempSec -= 128;
                                 1861   CLINEA 0000H 0001H 02C7H 0004H 0012H
00:004E 80 10                    1862   	add	r0,	#080h
00:0050 FF 61                    1863   	addc	r1,	#0ffh
00:0052 05-F4                    1864   	mov	er4,	er0
                                 1865   
                                 1866   ;;			TimeFlag++;
                                 1867   CLINEA 0000H 0000H 02C8H 0004H 000EH
00:0054 01 16                    1868   	add	r6,	#01h
                                 1869   CBLOCKEND 195 6 713
                                 1870   
                                 1871   ;;		while(TempSec > 128){
                                 1872   CLINEA 0000H 0000H 02C6H 0001H 0001H
00:0056                          1873   _$L174 :
                                 1874   
                                 1875   ;;		while(TempSec > 128){
                                 1876   CLINEA 0000H 0000H 02C6H 0012H 0022H
00:0056 45-F0                    1877   	mov	er0,	er4
00:0058 80 74                    1878   	cmp	r4,	#080h
00:005A 00 55                    1879   	cmpc	r5,	#00h
00:005C F8 C2                    1880   	bgt	_$L160
                                 1881   
                                 1882   ;;		if(TempSec != 0){
                                 1883   CLINEA 0000H 0001H 02CAH 0003H 0013H
00:005E 45-F4                    1884   	mov	er4,	er4
00:0060 08 C9                    1885   	beq	_$L162
                                 1886   CBLOCK 195 7 714
                                 1887   
                                 1888   ;;			timerThres = 0x1FF * TempSec;
                                 1889   CLINEA 0000H 0001H 02CBH 0004H 0020H
00:0062 7B-91                    1890   	sllc	r1,	#07h
00:0064 7A-90                    1891   	sll	r0,	#07h
00:0066 2B-91                    1892   	sllc	r1,	#02h
00:0068 2A-90                    1893   	sll	r0,	#02h
00:006A 48-80                    1894   	sub	r0,	r4
00:006C 59-81                    1895   	subc	r1,	r5
00:006E 05-FC                    1896   	mov	bp,	er0
                                 1897   CBLOCKEND 195 7 716
                                 1898   
                                 1899   ;;		else{
                                 1900   CLINEA 0000H 0001H 02CDH 0003H 0007H
00:0070 02 CE                    1901   	bal	_$L164
00:0072                          1902   _$L162 :
                                 1903   CBLOCK 195 8 717
                                 1904   
                                 1905   ;;			timerThres = 0xFFFF;
                                 1906   CLINEA 0000H 0001H 02CEH 0004H 0017H
00:0072 7F EC                    1907   	mov	bp,	#-1
                                 1908   
                                 1909   ;;			TimeFlag--;
                                 1910   CLINEA 0000H 0000H 02CFH 0004H 000EH
00:0074 FF 16                    1911   	add	r6,	#0ffh
                                 1912   CBLOCKEND 195 8 720
                                 1913   
                                 1914   ;;		}
                                 1915   CLINEA 0000H 0000H 02D0H 0003H 0003H
00:0076                          1916   _$L164 :
                                 1917   CBLOCKEND 195 5 721
                                 1918   
                                 1919   ;;	main_clrWDT();	
                                 1920   CLINEA 0000H 0001H 02D4H 0002H 0010H
00:0076 01-F0'00-00'             1921   	bl	_main_clrWDT
                                 1922   
                                 1923   ;;	tm_startAB();
                                 1924   CLINEA 0000H 0001H 00CFH 0002H 000AH
00:007A 00 00                    1925   	mov	r0,	#00h
00:007C 11-90 E9-F8              1926   	st	r0,	0f8e9h
                                 1927   
                                 1928   ;;	tm_startAB();
                                 1929   CLINEA 0000H 0000H 00D0H 0002H 000BH
00:0080 80-A0 EB-F8              1930   	sb	0f8ebh.0
                                 1931   
                                 1932   ;;	timer = tm_getABCounter();
                                 1933   CLINEA 0000H 0000H 011EH 0002H 001BH
00:0084 10-90 E9-F8              1934   	l	r0,	0f8e9h
00:0088 00 01                    1935   	mov	r1,	#00h
00:008A 05-F2                    1936   	mov	er2,	er0
                                 1937   
                                 1938   ;;	timer = tm_getABCounter();
                                 1939   CLINEA 0000H 0000H 011FH 0002H 0014H
00:008C 10-90 ED-F8              1940   	l	r0,	0f8edh
00:0090 03-83                    1941   	or	r3,	r0
                                 1942   
                                 1943   ;;	timer = tm_getABCounter();
                                 1944   CLINEA 0000H 0000H 0120H 0002H 000CH
00:0092 25-F0                    1945   	mov	er0,	er2
                                 1946   
                                 1947   ;;	while(timer < timerThres){
                                 1948   CLINEA 0000H 0001H 02D8H 0002H 001BH
00:0094 08 CE                    1949   	bal	_$L167
00:0096                          1950   _$L169 :
                                 1951   CBLOCK 195 9 728
                                 1952   
                                 1953   ;;		timer = tm_getABCounter();
                                 1954   CLINEA 0000H 0000H 011EH 0002H 001BH
00:0096 10-90 E9-F8              1955   	l	r0,	0f8e9h
00:009A 00 01                    1956   	mov	r1,	#00h
00:009C 05-F2                    1957   	mov	er2,	er0
                                 1958   
                                 1959   ;;		timer = tm_getABCounter();
                                 1960   CLINEA 0000H 0000H 011FH 0002H 0014H
00:009E 10-90 ED-F8              1961   	l	r0,	0f8edh
00:00A2 03-83                    1962   	or	r3,	r0
                                 1963   
                                 1964   ;;		timer = tm_getABCounter();
                                 1965   CLINEA 0000H 0000H 0120H 0002H 000CH
00:00A4 25-F0                    1966   	mov	er0,	er2
                                 1967   
                                 1968   ;;		timer = tm_getABCounter();
                                 1969   CLINEA 0000H 0000H 02D9H 0003H 001CH
                                 1970   CBLOCKEND 195 9 731
                                 1971   
                                 1972   ;;	}
                                 1973   CLINEA 0000H 0000H 02DBH 0002H 0002H
00:00A6                          1974   _$L167 :
                                 1975   
                                 1976   ;;	while(timer < timerThres){
                                 1977   CLINEA 0000H 0000H 02D8H 0012H 0022H
00:00A6 C7-F0                    1978   	cmp	er0,	bp
00:00A8 F6 C1                    1979   	blt	_$L169
                                 1980   
                                 1981   ;;	if(TimeFlag !=0){
                                 1982   CLINEA 0000H 0001H 02DCH 0002H 0012H
00:00AA 00 76                    1983   	cmp	r6,	#00h
00:00AC 05 C9                    1984   	beq	_$L172
                                 1985   
                                 1986   ;;		tm_stopAB();
                                 1987   CLINEA 0000H 0001H 0103H 0002H 000BH
00:00AE 82-A0 EB-F8              1988   	rb	0f8ebh.0
                                 1989   
                                 1990   ;;		TimeFlag--;
                                 1991   CLINEA 0000H 0000H 02DEH 0003H 000DH
00:00B2 FF 16                    1992   	add	r6,	#0ffh
                                 1993   
                                 1994   ;;		timerThres = 0xFFFF;
                                 1995   CLINEA 0000H 0001H 02DFH 0003H 0016H
00:00B4 7F EC                    1996   	mov	bp,	#-1
                                 1997   
                                 1998   ;;		goto TimerRestart;
                                 1999   CLINEA 0000H 0001H 02E0H 0003H 0014H
00:00B6 DF CE                    2000   	bal	_$L164
                                 2001   
                                 2002   ;;	}
                                 2003   CLINEA 0000H 0000H 02E1H 0002H 0002H
00:00B8                          2004   _$L172 :
                                 2005   CBLOCKEND 195 2 738
                                 2006   
                                 2007   ;;}
                                 2008   CLINEA 0000H 0001H 02E2H 0001H 0001H
00:00B8 1E-F8                    2009   	pop	er8
00:00BA 1E-FC                    2010   	pop	bp
00:00BC 2E-F4                    2011   	pop	xr4
00:00BE 8E-F2                    2012   	pop	pc
                                 2013   CBLOCKEND 195 1 738
                                 2014   CFUNCTIONEND 195
                                 2015   
                                 2016   
  --------------------------     2017   	rseg $$Initialization$main
                                 2018   CFUNCTION 178
                                 2019   
00:0000                          2020   _Initialization	:
                                 2021   CBLOCK 178 1 745
                                 2022   
                                 2023   ;;{
                                 2024   CLINEA 0000H 0001H 02E9H 0001H 0001H
00:0000 CE-F8                    2025   	push	lr
                                 2026   CBLOCK 178 2 745
                                 2027   CRET 0000H
                                 2028   
                                 2029   ;;	DSIO0 = 0; // 0=> Enables Synchronous Serial Port 0 (initial value).
                                 2030   CLINEA 0000H 0001H 02EDH 0002H 0045H
00:0002 82-A0 2A-F0              2031   	rb	0f02ah.0
                                 2032   
                                 2033   ;;	DUA0  = 0; // 0=> Enables the operation of UART0 (initial value). 
                                 2034   CLINEA 0000H 0001H 02EFH 0002H 0043H
00:0006 A2-A0 2A-F0              2035   	rb	0f02ah.2
                                 2036   
                                 2037   ;;	DUA1  = 1; // 0=> Enables Uart1 (initial value). 
                                 2038   CLINEA 0000H 0001H 02F1H 0002H 0032H
00:000A B0-A0 2A-F0              2039   	sb	0f02ah.3
                                 2040   
                                 2041   ;;	DI2C1 = 1; // 0=> Enables I2C bus Interface (Slave) (initial value).
                                 2042   CLINEA 0000H 0001H 02F2H 0002H 0045H
00:000E E0-A0 2A-F0              2043   	sb	0f02ah.6
                                 2044   
                                 2045   ;;	DI2C0 = 0; // 0=> Enables I2C bus Interface (Master) (initial value).	
                                 2046   CLINEA 0000H 0001H 02F3H 0002H 0047H
00:0012 F2-A0 2A-F0              2047   	rb	0f02ah.7
                                 2048   
                                 2049   ;;	BLKCON4 = 0x01; // 0=> Enables SA-ADC
                                 2050   CLINEA 0000H 0001H 02F5H 0002H 0026H
00:0016 01 00                    2051   	mov	r0,	#01h
00:0018 11-90 2C-F0              2052   	st	r0,	0f02ch
                                 2053   
                                 2054   ;;	BLKCON6 = 0xC3; // (1=disables; 0=enables) the operation of Timers 8, 9, A, E, F.
                                 2055   CLINEA 0000H 0001H 02F6H 0002H 0052H
00:001C C3 00                    2056   	mov	r0,	#0c3h
00:001E 11-90 2E-F0              2057   	st	r0,	0f02eh
                                 2058   
                                 2059   ;;	BLKCON7 = 0x0B; // (1=disables; 0=enables) the operation of PWM (PWMC, PWMD, PWME, PWMF
                                 2060   CLINEA 0000H 0001H 02F8H 0002H 0058H
00:0022 0B 00                    2061   	mov	r0,	#0bh
00:0024 11-90 2F-F0              2062   	st	r0,	0f02fh
                                 2063   
                                 2064   ;;	PortA_Low();	//Initialize all 3 Ports of Q111 Port A to GPIO-Low
                                 2065   CLINEA 0000H 0001H 02FCH 0002H 0041H
00:0028 01-F0'00-00'             2066   	bl	_PortA_Low
                                 2067   
                                 2068   ;;	PortB_Low();	//Initialize all 8 Ports of Q111 Port B to GPIO-Low
                                 2069   CLINEA 0000H 0001H 02FDH 0002H 0041H
00:002C 01-F0'00-00'             2070   	bl	_PortB_Low
                                 2071   
                                 2072   ;;	PortC_Low();	//Initialize all 4 Ports of Q111 Port C to GPIO-Low
                                 2073   CLINEA 0000H 0001H 02FEH 0002H 0041H
00:0030 01-F0'00-00'             2074   	bl	_PortC_Low
                                 2075   
                                 2076   ;;	SetOSC(); //8MHz
                                 2077   CLINEA 0000H 0001H 0301H 0002H 0011H
00:0034 01-F0'00-00'             2078   	bl	_SetOSC
                                 2079   
                                 2080   ;;	irq_di(); 	//Disable Interrupts...
                                 2081   CLINEA 0000H 0001H 0304H 0002H 0023H
00:0038 01-F0'00-00'             2082   	bl	_irq_di
                                 2083   
                                 2084   ;;	irq_init();	//Initialize Interrupts (All Off and NO Requests)
                                 2085   CLINEA 0000H 0001H 0305H 0002H 003EH
00:003C 01-F0'00-00'             2086   	bl	_irq_init
                                 2087   
                                 2088   ;;	IE0 = IE1 = IE2 = IE3 = IE4 = IE5 = IE6 = IE7 = 0; // 0=DISABLED; 1=ENABLED
                                 2089   CLINEA 0000H 0001H 0308H 0002H 004CH
00:0040 00 00                    2090   	mov	r0,	#00h
00:0042 11-90 17-F0              2091   	st	r0,	0f017h
00:0046 11-90 16-F0              2092   	st	r0,	0f016h
00:004A 11-90 15-F0              2093   	st	r0,	0f015h
00:004E 11-90 14-F0              2094   	st	r0,	0f014h
00:0052 11-90 13-F0              2095   	st	r0,	0f013h
00:0056 11-90 12-F0              2096   	st	r0,	0f012h
00:005A 11-90 11-F0              2097   	st	r0,	0f011h
00:005E 11-90 10-F0              2098   	st	r0,	0f010h
                                 2099   
                                 2100   ;;	IRQ0 = IRQ1 = IRQ2 = IRQ3 = IRQ4 = IRQ5 = IRQ6 = IRQ7 = 0;	//Clear all Requests...
                                 2101   CLINEA 0000H 0001H 030BH 0002H 0053H
00:0062 11-90 1F-F0              2102   	st	r0,	0f01fh
00:0066 11-90 1E-F0              2103   	st	r0,	0f01eh
00:006A 11-90 1D-F0              2104   	st	r0,	0f01dh
00:006E 11-90 1C-F0              2105   	st	r0,	0f01ch
00:0072 11-90 1B-F0              2106   	st	r0,	0f01bh
00:0076 11-90 1A-F0              2107   	st	r0,	0f01ah
00:007A 11-90 19-F0              2108   	st	r0,	0f019h
00:007E 11-90 18-F0              2109   	st	r0,	0f018h
                                 2110   
                                 2111   ;;	E2H = 0; 	// E2H is the Enable flag for 2Hz TBC Interrupt (1=ENABLED)
                                 2112   CLINEA 0000H 0001H 030DH 0002H 0046H
00:0082 B2-A0 17-F0              2113   	rb	0f017h.3
                                 2114   
                                 2115   ;;	irq_setHdr((unsigned char)IRQ_NO_UA0INT, _intUart);
                                 2116   CLINEA 0000H 0001H 030FH 0002H 0034H
00:0086 00'02                    2117   	mov	r2,	#BYTE1 OFFSET __intUart
00:0088 00'03                    2118   	mov	r3,	#BYTE2 OFFSET __intUart
00:008A 0F 00                    2119   	mov	r0,	#0fh
00:008C 01-F0'00-00'             2120   	bl	_irq_setHdr
                                 2121   
                                 2122   ;;	EUA0 = 1; 	// EUA0 is the enable flag for the UART0 interrupt (1=ENABLED)
                                 2123   CLINEA 0000H 0001H 0310H 0002H 004AH
00:0090 80-A0 14-F0              2124   	sb	0f014h.0
                                 2125   
                                 2126   ;;	irq_setHdr((unsigned char)IRQ_NO_I2CMINT, _intI2c);
                                 2127   CLINEA 0000H 0001H 0313H 0002H 0034H
00:0094 00'02                    2128   	mov	r2,	#BYTE1 OFFSET __intI2c
00:0096 00'03                    2129   	mov	r3,	#BYTE2 OFFSET __intI2c
00:0098 0C 00                    2130   	mov	r0,	#0ch
00:009A 01-F0'00-00'             2131   	bl	_irq_setHdr
                                 2132   
                                 2133   ;;	EI2CM = 1;
                                 2134   CLINEA 0000H 0001H 0314H 0002H 000BH
00:009E F0-A0 12-F0              2135   	sb	0f012h.7
                                 2136   
                                 2137   ;;	QI2CM = 0; 
                                 2138   CLINEA 0000H 0001H 0315H 0002H 000CH
00:00A2 F2-A0 1A-F0              2139   	rb	0f01ah.7
                                 2140   
                                 2141   ;;	PB2MD0 = 0;
                                 2142   CLINEA 0000H 0001H 0318H 0002H 000CH
00:00A6 A2-A0 5C-F2              2143   	rb	0f25ch.2
                                 2144   
                                 2145   ;;	PB2MD1 = 0;
                                 2146   CLINEA 0000H 0001H 0319H 0002H 000CH
00:00AA A2-A0 5D-F2              2147   	rb	0f25dh.2
                                 2148   
                                 2149   ;;	PB2DIR = 1;
                                 2150   CLINEA 0000H 0001H 031AH 0002H 000CH
00:00AE A0-A0 59-F2              2151   	sb	0f259h.2
                                 2152   
                                 2153   ;;	PB2C0 = 0;
                                 2154   CLINEA 0000H 0001H 031BH 0002H 000BH
00:00B2 A2-A0 5A-F2              2155   	rb	0f25ah.2
                                 2156   
                                 2157   ;;	PB2C1 = 1;
                                 2158   CLINEA 0000H 0001H 031CH 0002H 000BH
00:00B6 A0-A0 5B-F2              2159   	sb	0f25bh.2
                                 2160   
                                 2161   ;;	PB2E0 = 1;
                                 2162   CLINEA 0000H 0001H 031DH 0002H 000BH
00:00BA E0-A0 24-F0              2163   	sb	0f024h.6
                                 2164   
                                 2165   ;;	PB2E1 = 0;
                                 2166   CLINEA 0000H 0001H 031EH 0002H 000BH
00:00BE E2-A0 25-F0              2167   	rb	0f025h.6
                                 2168   
                                 2169   ;;	irq_setHdr((unsigned char)IRQ_NO_PB2INT, _intPB2);
                                 2170   CLINEA 0000H 0001H 0322H 0002H 0033H
00:00C2 00'02                    2171   	mov	r2,	#BYTE1 OFFSET __intPB2
00:00C4 00'03                    2172   	mov	r3,	#BYTE2 OFFSET __intPB2
00:00C6 07 00                    2173   	mov	r0,	#07h
00:00C8 01-F0'00-00'             2174   	bl	_irq_setHdr
                                 2175   
                                 2176   ;;	EPB2 = 1;
                                 2177   CLINEA 0000H 0001H 0323H 0002H 000AH
00:00CC E0-A0 11-F0              2178   	sb	0f011h.6
                                 2179   
                                 2180   ;;	QPB2 = 0;
                                 2181   CLINEA 0000H 0001H 0324H 0002H 000AH
00:00D0 E2-A0 19-F0              2182   	rb	0f019h.6
                                 2183   
                                 2184   ;;	irq_ei();	// Enable Interrupts...
                                 2185   CLINEA 0000H 0001H 0326H 0002H 0022H
00:00D4 01-F0'00-00'             2186   	bl	_irq_ei
                                 2187   
                                 2188   ;;	WDTMOD = 0x03; 	// 0x03=overflow 8sec...
                                 2189   CLINEA 0000H 0001H 0329H 0002H 0029H
00:00D8 03 00                    2190   	mov	r0,	#03h
00:00DA 11-90 0F-F0              2191   	st	r0,	0f00fh
                                 2192   
                                 2193   ;;	main_clrWDT(); 	// Clear WDT
                                 2194   CLINEA 0000H 0001H 032AH 0002H 001DH
00:00DE 01-F0'00-00'             2195   	bl	_main_clrWDT
                                 2196   
                                 2197   ;;	i2c_init(I2C_MOD_FST, (unsigned short)HSCLK_KHZ, I2C_SYN_OFF);
                                 2198   CLINEA 0000H 0001H 0330H 0002H 003FH
00:00E2 00 00                    2199   	mov	r0,	#00h
00:00E4 4E-F0                    2200   	push	r0
00:00E6 00 02                    2201   	mov	r2,	#00h
00:00E8 20 03                    2202   	mov	r3,	#020h
00:00EA 01 00                    2203   	mov	r0,	#01h
00:00EC 01-F0'00-00'             2204   	bl	_i2c_init
00:00F0 02 E1                    2205   	add	sp,	#2 
                                 2206   
                                 2207   ;;			     &_uartSetParam );						// Param... 	 
                                 2208   CLINEA 0000H 0001H 0336H 0009H 002DH
00:00F2 00'00                    2209   	mov	r0,	#BYTE1 OFFSET __uartSetParam
00:00F4 00'01                    2210   	mov	r1,	#BYTE2 OFFSET __uartSetParam
00:00F6 5E-F0                    2211   	push	er0
00:00F8 00 02                    2212   	mov	r2,	#00h
00:00FA 20 03                    2213   	mov	r3,	#020h
00:00FC 02 00                    2214   	mov	r0,	#02h
00:00FE 01-F0'00-00'             2215   	bl	_uart_init
00:0102 02 E1                    2216   	add	sp,	#2 
                                 2217   
                                 2218   ;;	uart_PortSet();
                                 2219   CLINEA 0000H 0001H 0337H 0002H 0010H
00:0104 01-F0'00-00'             2220   	bl	_uart_PortSet
                                 2221   
                                 2222   ;;	_flgUartFin = 0;
                                 2223   CLINEA 0000H 0001H 0338H 0002H 0011H
00:0108 00 00                    2224   	mov	r0,	#00h
00:010A 11-90 00-00'             2225   	st	r0,	NEAR __flgUartFin
                                 2226   
                                 2227   ;;	uart_stop();
                                 2228   CLINEA 0000H 0001H 0339H 0002H 000DH
00:010E 01-F0'00-00'             2229   	bl	_uart_stop
                                 2230   
                                 2231   ;;	PB4DIR = 0;		// PortB Bit7 set to Output Mode...
                                 2232   CLINEA 0000H 0001H 033DH 0002H 0031H
00:0112 C2-A0 59-F2              2233   	rb	0f259h.4
                                 2234   
                                 2235   ;;	PB4C1  = 1;		// PortB Bit7 set to CMOS Output...
                                 2236   CLINEA 0000H 0001H 033EH 0002H 0031H
00:0116 C0-A0 5B-F2              2237   	sb	0f25bh.4
                                 2238   
                                 2239   ;;	PB4C0  = 1;	
                                 2240   CLINEA 0000H 0001H 033FH 0002H 000DH
00:011A C0-A0 5A-F2              2241   	sb	0f25ah.4
                                 2242   
                                 2243   ;;	PB4MD1  = 0;	// PortB Bit7 set to General Purpose Output...
                                 2244   CLINEA 0000H 0001H 0340H 0002H 003CH
00:011E C2-A0 5D-F2              2245   	rb	0f25dh.4
                                 2246   
                                 2247   ;;	PB4MD0  = 0;
                                 2248   CLINEA 0000H 0001H 0341H 0002H 000DH
00:0122 C2-A0 5C-F2              2249   	rb	0f25ch.4
                                 2250   
                                 2251   ;;	PB4D = 0;		// B.7 Output OFF....
                                 2252   CLINEA 0000H 0001H 0342H 0002H 0021H
00:0126 C2-A0 58-F2              2253   	rb	0f258h.4
                                 2254   CBLOCKEND 178 2 836
                                 2255   
                                 2256   ;;}//End Initialization
                                 2257   CLINEA 0000H 0001H 0344H 0001H 0015H
00:012A 8E-F2                    2258   	pop	pc
                                 2259   CBLOCKEND 178 1 836
                                 2260   CFUNCTIONEND 178
                                 2261   
                                 2262   
  --------------------------     2263   	rseg $$OutputPWM$main
                                 2264   CFUNCTION 196
                                 2265   
00:0000                          2266   _OutputPWM	:
                                 2267   CBLOCK 196 1 840
                                 2268   
                                 2269   ;;void OutputPWM(void){ 
                                 2270   CLINEA 0000H 0001H 0348H 0001H 0016H
                                 2271   CBLOCK 196 2 840
                                 2272   
                                 2273   ;;      PA2DIR = 0;       // PortB Bit0 set to Output Mode... 
                                 2274   CLINEA 0000H 0001H 0354H 0007H 003CH
00:0000 A2-A0 51-F2              2275   	rb	0f251h.2
                                 2276   
                                 2277   ;;      PA2C1  = 1;       // PortB Bit0 set to CMOS Output...
                                 2278   CLINEA 0000H 0001H 0357H 0007H 003BH
00:0004 A0-A0 53-F2              2279   	sb	0f253h.2
                                 2280   
                                 2281   ;;      PA2C0  = 1;       
                                 2282   CLINEA 0000H 0001H 0358H 0007H 0018H
00:0008 A0-A0 52-F2              2283   	sb	0f252h.2
                                 2284   
                                 2285   ;;      PA2MD1  = 0;            // PortC Bit0 set to PWM Output (1,0)...
                                 2286   CLINEA 0000H 0001H 035BH 0007H 0046H
00:000C A2-A0 55-F2              2287   	rb	0f255h.2
                                 2288   
                                 2289   ;;      PA2MD0  = 1;    
                                 2290   CLINEA 0000H 0001H 035CH 0007H 0016H
00:0010 A0-A0 54-F2              2291   	sb	0f254h.2
                                 2292   
                                 2293   ;;      PECS1 = 0;        //00= LS; 01=HS; 10=PLL
                                 2294   CLINEA 0000H 0001H 035FH 0007H 002FH
00:0014 92-A0 36-F9              2295   	rb	0f936h.1
                                 2296   
                                 2297   ;;      PECS0 = 1;
                                 2298   CLINEA 0000H 0001H 0360H 0007H 0010H
00:0018 80-A0 36-F9              2299   	sb	0f936h.0
                                 2300   
                                 2301   ;;      PWEP = 27000;            // Init Period to (1=255kHz; 10=46kHz; 50=10kHz; 200=2.5kH; ; 3185 = 160Hz; 3400=150Hz; 4250=120Hz; 5000=102Hz)
                                 2302   CLINEA 0000H 0001H 0366H 0007H 008EH
00:001C 78 00                    2303   	mov	r0,	#078h
00:001E 69 01                    2304   	mov	r1,	#069h
00:0020 13-90 30-F9              2305   	st	er0,	0f930h
                                 2306   
                                 2307   ;;	  PWED = 10000;
                                 2308   CLINEA 0000H 0001H 036EH 0004H 0010H
00:0024 10 00                    2309   	mov	r0,	#010h
00:0026 27 01                    2310   	mov	r1,	#027h
00:0028 13-90 32-F9              2311   	st	er0,	0f932h
                                 2312   
                                 2313   ;;      PERUN = 0;        // OFF to start
                                 2314   CLINEA 0000H 0001H 0377H 0007H 0027H
00:002C 82-A0 37-F9              2315   	rb	0f937h.0
                                 2316   CBLOCKEND 196 2 888
                                 2317   
                                 2318   ;;}
                                 2319   CLINEA 0000H 0001H 0378H 0001H 0001H
00:0030 1F-FE                    2320   	rt
                                 2321   CBLOCKEND 196 1 888
                                 2322   CFUNCTIONEND 196
                                 2323   
                                 2324   
  --------------------------     2325   	rseg $$Init_KMX61$main
                                 2326   CFUNCTION 186
                                 2327   
00:0000                          2328   _Init_KMX61	:
                                 2329   CBLOCK 186 1 903
                                 2330   
                                 2331   ;;{ 
                                 2332   CLINEA 0000H 0001H 0387H 0001H 0002H
00:0000 CE-F8                    2333   	push	lr
                                 2334   CBLOCK 186 2 903
                                 2335   CRET 0000H
                                 2336   
                                 2337   ;;	RegVal = 0x03u;
                                 2338   CLINEA 0000H 0001H 0389H 0002H 0010H
00:0002 03 00                    2339   	mov	r0,	#03h
00:0004 11-90 00-00'             2340   	st	r0,	NEAR _RegVal
                                 2341   
                                 2342   ;;	I2C_Write(KMX61_I2C_ADDR, &KMX61_STBY_REG, 1, &RegVal, 1);
                                 2343   CLINEA 0000H 0001H 038AH 0002H 003BH
00:0008 01 00                    2344   	mov	r0,	#01h
00:000A 4E-F0                    2345   	push	r0
00:000C 00'00                    2346   	mov	r0,	#BYTE1 OFFSET _RegVal
00:000E 00'01                    2347   	mov	r1,	#BYTE2 OFFSET _RegVal
00:0010 5E-F0                    2348   	push	er0
00:0012 01 00                    2349   	mov	r0,	#01h
00:0014 4E-F0                    2350   	push	r0
00:0016 00'02                    2351   	mov	r2,	#BYTE1 OFFSET _KMX61_STBY_REG
00:0018 00'03                    2352   	mov	r3,	#BYTE2 OFFSET _KMX61_STBY_REG
00:001A 0E 00                    2353   	mov	r0,	#0eh
00:001C 01-F0'00-00'             2354   	bl	_I2C_Write
00:0020 06 E1                    2355   	add	sp,	#6 
                                 2356   
                                 2357   ;;	I2C_Write(KMX61_I2C_ADDR, &KMX61_SELF_TEST, 1, &KMX61_SELF_TEST_CFGDAT, 1);
                                 2358   CLINEA 0000H 0001H 038CH 0002H 004CH
00:0022 01 00                    2359   	mov	r0,	#01h
00:0024 4E-F0                    2360   	push	r0
00:0026 00'00                    2361   	mov	r0,	#BYTE1 OFFSET _KMX61_SELF_TEST_CFGDAT
00:0028 00'01                    2362   	mov	r1,	#BYTE2 OFFSET _KMX61_SELF_TEST_CFGDAT
00:002A 5E-F0                    2363   	push	er0
00:002C 01 00                    2364   	mov	r0,	#01h
00:002E 4E-F0                    2365   	push	r0
00:0030 00'02                    2366   	mov	r2,	#BYTE1 OFFSET _KMX61_SELF_TEST
00:0032 00'03                    2367   	mov	r3,	#BYTE2 OFFSET _KMX61_SELF_TEST
00:0034 0E 00                    2368   	mov	r0,	#0eh
00:0036 01-F0'00-00'             2369   	bl	_I2C_Write
00:003A 06 E1                    2370   	add	sp,	#6 
                                 2371   
                                 2372   ;;	I2C_Write(KMX61_I2C_ADDR, &KMX61_CNTL1, 1, &KMX61_CNTL1_CFGDAT, 1);
                                 2373   CLINEA 0000H 0001H 038DH 0002H 0044H
00:003C 01 00                    2374   	mov	r0,	#01h
00:003E 4E-F0                    2375   	push	r0
00:0040 00'00                    2376   	mov	r0,	#BYTE1 OFFSET _KMX61_CNTL1_CFGDAT
00:0042 00'01                    2377   	mov	r1,	#BYTE2 OFFSET _KMX61_CNTL1_CFGDAT
00:0044 5E-F0                    2378   	push	er0
00:0046 01 00                    2379   	mov	r0,	#01h
00:0048 4E-F0                    2380   	push	r0
00:004A 00'02                    2381   	mov	r2,	#BYTE1 OFFSET _KMX61_CNTL1
00:004C 00'03                    2382   	mov	r3,	#BYTE2 OFFSET _KMX61_CNTL1
00:004E 0E 00                    2383   	mov	r0,	#0eh
00:0050 01-F0'00-00'             2384   	bl	_I2C_Write
00:0054 06 E1                    2385   	add	sp,	#6 
                                 2386   
                                 2387   ;;	I2C_Write(KMX61_I2C_ADDR, &KMX61_CNTL2, 1, &KMX61_CNTL2_CFGDAT, 1);
                                 2388   CLINEA 0000H 0001H 038EH 0002H 0044H
00:0056 01 00                    2389   	mov	r0,	#01h
00:0058 4E-F0                    2390   	push	r0
00:005A 00'00                    2391   	mov	r0,	#BYTE1 OFFSET _KMX61_CNTL2_CFGDAT
00:005C 00'01                    2392   	mov	r1,	#BYTE2 OFFSET _KMX61_CNTL2_CFGDAT
00:005E 5E-F0                    2393   	push	er0
00:0060 01 00                    2394   	mov	r0,	#01h
00:0062 4E-F0                    2395   	push	r0
00:0064 00'02                    2396   	mov	r2,	#BYTE1 OFFSET _KMX61_CNTL2
00:0066 00'03                    2397   	mov	r3,	#BYTE2 OFFSET _KMX61_CNTL2
00:0068 0E 00                    2398   	mov	r0,	#0eh
00:006A 01-F0'00-00'             2399   	bl	_I2C_Write
00:006E 06 E1                    2400   	add	sp,	#6 
                                 2401   
                                 2402   ;;	I2C_Write(KMX61_I2C_ADDR, &KMX61_ODCNTL, 1, &KMX61_ODCNTL_CFGDAT, 1);
                                 2403   CLINEA 0000H 0001H 038FH 0002H 0046H
00:0070 01 00                    2404   	mov	r0,	#01h
00:0072 4E-F0                    2405   	push	r0
00:0074 00'00                    2406   	mov	r0,	#BYTE1 OFFSET _KMX61_ODCNTL_CFGDAT
00:0076 00'01                    2407   	mov	r1,	#BYTE2 OFFSET _KMX61_ODCNTL_CFGDAT
00:0078 5E-F0                    2408   	push	er0
00:007A 01 00                    2409   	mov	r0,	#01h
00:007C 4E-F0                    2410   	push	r0
00:007E 00'02                    2411   	mov	r2,	#BYTE1 OFFSET _KMX61_ODCNTL
00:0080 00'03                    2412   	mov	r3,	#BYTE2 OFFSET _KMX61_ODCNTL
00:0082 0E 00                    2413   	mov	r0,	#0eh
00:0084 01-F0'00-00'             2414   	bl	_I2C_Write
00:0088 06 E1                    2415   	add	sp,	#6 
                                 2416   
                                 2417   ;;	I2C_Write(KMX61_I2C_ADDR, &KMX61_TEMP_EN_CNTL, 1, &KMX61_TEMP_EN_CNTL_CFGDAT, 1);
                                 2418   CLINEA 0000H 0001H 0390H 0002H 0052H
00:008A 01 00                    2419   	mov	r0,	#01h
00:008C 4E-F0                    2420   	push	r0
00:008E 00'00                    2421   	mov	r0,	#BYTE1 OFFSET _KMX61_TEMP_EN_CNTL_CFGDAT
00:0090 00'01                    2422   	mov	r1,	#BYTE2 OFFSET _KMX61_TEMP_EN_CNTL_CFGDAT
00:0092 5E-F0                    2423   	push	er0
00:0094 01 00                    2424   	mov	r0,	#01h
00:0096 4E-F0                    2425   	push	r0
00:0098 00'02                    2426   	mov	r2,	#BYTE1 OFFSET _KMX61_TEMP_EN_CNTL
00:009A 00'03                    2427   	mov	r3,	#BYTE2 OFFSET _KMX61_TEMP_EN_CNTL
00:009C 0E 00                    2428   	mov	r0,	#0eh
00:009E 01-F0'00-00'             2429   	bl	_I2C_Write
00:00A2 06 E1                    2430   	add	sp,	#6 
                                 2431   
                                 2432   ;;	I2C_Write(KMX61_I2C_ADDR, &KMX61_BUF_CTRL1, 1, &KMX61_BUF_CTRL1_CFGDAT, 1);
                                 2433   CLINEA 0000H 0001H 0391H 0002H 004CH
00:00A4 01 00                    2434   	mov	r0,	#01h
00:00A6 4E-F0                    2435   	push	r0
00:00A8 00'00                    2436   	mov	r0,	#BYTE1 OFFSET _KMX61_BUF_CTRL1_CFGDAT
00:00AA 00'01                    2437   	mov	r1,	#BYTE2 OFFSET _KMX61_BUF_CTRL1_CFGDAT
00:00AC 5E-F0                    2438   	push	er0
00:00AE 01 00                    2439   	mov	r0,	#01h
00:00B0 4E-F0                    2440   	push	r0
00:00B2 00'02                    2441   	mov	r2,	#BYTE1 OFFSET _KMX61_BUF_CTRL1
00:00B4 00'03                    2442   	mov	r3,	#BYTE2 OFFSET _KMX61_BUF_CTRL1
00:00B6 0E 00                    2443   	mov	r0,	#0eh
00:00B8 01-F0'00-00'             2444   	bl	_I2C_Write
00:00BC 06 E1                    2445   	add	sp,	#6 
                                 2446   
                                 2447   ;;	I2C_Write(KMX61_I2C_ADDR, &KMX61_BUF_CTRL2, 1, &KMX61_BUF_CTRL2_CFGDAT, 1);
                                 2448   CLINEA 0000H 0001H 0392H 0002H 004CH
00:00BE 01 00                    2449   	mov	r0,	#01h
00:00C0 4E-F0                    2450   	push	r0
00:00C2 00'00                    2451   	mov	r0,	#BYTE1 OFFSET _KMX61_BUF_CTRL2_CFGDAT
00:00C4 00'01                    2452   	mov	r1,	#BYTE2 OFFSET _KMX61_BUF_CTRL2_CFGDAT
00:00C6 5E-F0                    2453   	push	er0
00:00C8 01 00                    2454   	mov	r0,	#01h
00:00CA 4E-F0                    2455   	push	r0
00:00CC 00'02                    2456   	mov	r2,	#BYTE1 OFFSET _KMX61_BUF_CTRL2
00:00CE 00'03                    2457   	mov	r3,	#BYTE2 OFFSET _KMX61_BUF_CTRL2
00:00D0 0E 00                    2458   	mov	r0,	#0eh
00:00D2 01-F0'00-00'             2459   	bl	_I2C_Write
00:00D6 06 E1                    2460   	add	sp,	#6 
                                 2461   
                                 2462   ;;	I2C_Write(KMX61_I2C_ADDR, &KMX61_INC1, 1, &KMX61_INC1_CFGDAT, 1);
                                 2463   CLINEA 0000H 0001H 0395H 0002H 0042H
00:00D8 01 00                    2464   	mov	r0,	#01h
00:00DA 4E-F0                    2465   	push	r0
00:00DC 00'00                    2466   	mov	r0,	#BYTE1 OFFSET _KMX61_INC1_CFGDAT
00:00DE 00'01                    2467   	mov	r1,	#BYTE2 OFFSET _KMX61_INC1_CFGDAT
00:00E0 5E-F0                    2468   	push	er0
00:00E2 01 00                    2469   	mov	r0,	#01h
00:00E4 4E-F0                    2470   	push	r0
00:00E6 00'02                    2471   	mov	r2,	#BYTE1 OFFSET _KMX61_INC1
00:00E8 00'03                    2472   	mov	r3,	#BYTE2 OFFSET _KMX61_INC1
00:00EA 0E 00                    2473   	mov	r0,	#0eh
00:00EC 01-F0'00-00'             2474   	bl	_I2C_Write
00:00F0 06 E1                    2475   	add	sp,	#6 
                                 2476   
                                 2477   ;;	I2C_Write(KMX61_I2C_ADDR, &KMX61_INC3, 1, &KMX61_INC3_CFGDAT, 1);
                                 2478   CLINEA 0000H 0001H 0396H 0002H 0042H
00:00F2 01 00                    2479   	mov	r0,	#01h
00:00F4 4E-F0                    2480   	push	r0
00:00F6 00'00                    2481   	mov	r0,	#BYTE1 OFFSET _KMX61_INC3_CFGDAT
00:00F8 00'01                    2482   	mov	r1,	#BYTE2 OFFSET _KMX61_INC3_CFGDAT
00:00FA 5E-F0                    2483   	push	er0
00:00FC 01 00                    2484   	mov	r0,	#01h
00:00FE 4E-F0                    2485   	push	r0
00:0100 00'02                    2486   	mov	r2,	#BYTE1 OFFSET _KMX61_INC3
00:0102 00'03                    2487   	mov	r3,	#BYTE2 OFFSET _KMX61_INC3
00:0104 0E 00                    2488   	mov	r0,	#0eh
00:0106 01-F0'00-00'             2489   	bl	_I2C_Write
00:010A 06 E1                    2490   	add	sp,	#6 
                                 2491   
                                 2492   ;;	I2C_Write(KMX61_I2C_ADDR, &KMX61_WUFTH, 1, &KMX61_WUFTH_CFGDAT, 1);
                                 2493   CLINEA 0000H 0001H 0397H 0002H 0044H
00:010C 01 00                    2494   	mov	r0,	#01h
00:010E 4E-F0                    2495   	push	r0
00:0110 00'00                    2496   	mov	r0,	#BYTE1 OFFSET _KMX61_WUFTH_CFGDAT
00:0112 00'01                    2497   	mov	r1,	#BYTE2 OFFSET _KMX61_WUFTH_CFGDAT
00:0114 5E-F0                    2498   	push	er0
00:0116 01 00                    2499   	mov	r0,	#01h
00:0118 4E-F0                    2500   	push	r0
00:011A 00'02                    2501   	mov	r2,	#BYTE1 OFFSET _KMX61_WUFTH
00:011C 00'03                    2502   	mov	r3,	#BYTE2 OFFSET _KMX61_WUFTH
00:011E 0E 00                    2503   	mov	r0,	#0eh
00:0120 01-F0'00-00'             2504   	bl	_I2C_Write
00:0124 06 E1                    2505   	add	sp,	#6 
                                 2506   
                                 2507   ;;	I2C_Write(KMX61_I2C_ADDR, &KMX61_WUFC, 1, &KMX61_WUFC_CFGDAT, 1);
                                 2508   CLINEA 0000H 0001H 0398H 0002H 0042H
00:0126 01 00                    2509   	mov	r0,	#01h
00:0128 4E-F0                    2510   	push	r0
00:012A 00'00                    2511   	mov	r0,	#BYTE1 OFFSET _KMX61_WUFC_CFGDAT
00:012C 00'01                    2512   	mov	r1,	#BYTE2 OFFSET _KMX61_WUFC_CFGDAT
00:012E 5E-F0                    2513   	push	er0
00:0130 01 00                    2514   	mov	r0,	#01h
00:0132 4E-F0                    2515   	push	r0
00:0134 00'02                    2516   	mov	r2,	#BYTE1 OFFSET _KMX61_WUFC
00:0136 00'03                    2517   	mov	r3,	#BYTE2 OFFSET _KMX61_WUFC
00:0138 0E 00                    2518   	mov	r0,	#0eh
00:013A 01-F0'00-00'             2519   	bl	_I2C_Write
00:013E 06 E1                    2520   	add	sp,	#6 
                                 2521   
                                 2522   ;;	RegVal = 0x02u;
                                 2523   CLINEA 0000H 0001H 039BH 0002H 0010H
00:0140 02 00                    2524   	mov	r0,	#02h
00:0142 11-90 00-00'             2525   	st	r0,	NEAR _RegVal
                                 2526   
                                 2527   ;;	I2C_Write(KMX61_I2C_ADDR, &KMX61_STBY_REG, 1, &RegVal, 1);
                                 2528   CLINEA 0000H 0001H 039CH 0002H 003BH
00:0146 01 00                    2529   	mov	r0,	#01h
00:0148 4E-F0                    2530   	push	r0
00:014A 00'00                    2531   	mov	r0,	#BYTE1 OFFSET _RegVal
00:014C 00'01                    2532   	mov	r1,	#BYTE2 OFFSET _RegVal
00:014E 5E-F0                    2533   	push	er0
00:0150 01 00                    2534   	mov	r0,	#01h
00:0152 4E-F0                    2535   	push	r0
00:0154 00'02                    2536   	mov	r2,	#BYTE1 OFFSET _KMX61_STBY_REG
00:0156 00'03                    2537   	mov	r3,	#BYTE2 OFFSET _KMX61_STBY_REG
00:0158 0E 00                    2538   	mov	r0,	#0eh
00:015A 01-F0'00-00'             2539   	bl	_I2C_Write
00:015E 06 E1                    2540   	add	sp,	#6 
                                 2541   CBLOCKEND 186 2 925
                                 2542   
                                 2543   ;;}
                                 2544   CLINEA 0000H 0001H 039DH 0001H 0001H
00:0160 8E-F2                    2545   	pop	pc
                                 2546   CBLOCKEND 186 1 925
                                 2547   CFUNCTIONEND 186
                                 2548   
                                 2549   
  --------------------------     2550   	rseg $$write$main
                                 2551   CFUNCTION 183
                                 2552   
00:0000                          2553   _write	:
                                 2554   CBLOCK 183 1 938
                                 2555   
                                 2556   ;;{
                                 2557   CLINEA 0000H 0001H 03AAH 0001H 0001H
00:0000 CE-F8                    2558   	push	lr
00:0002 5E-FE                    2559   	push	fp
00:0004 1A-AE                    2560   	mov	fp,	sp
00:0006 5E-FA                    2561   	push	er10
00:0008 25-FA                    2562   	mov	er10,	er2
                                 2563   CBLOCK 183 2 938
                                 2564   CRET 0004H
                                 2565   CARGUMENT 47H 0002H 0000H "handle" 02H 00H 01H
                                 2566   CARGUMENT 46H 0002H 0029H "buffer" 04H 03H 00H 00H 00H
                                 2567   CARGUMENT 42H 0002H 0004H "len" 02H 00H 01H
                                 2568   
                                 2569   ;;	_flgUartFin = 0; 
                                 2570   CLINEA 0000H 0001H 03ABH 0002H 0012H
00:000A 00 00                    2571   	mov	r0,	#00h
00:000C 11-90 00-00'             2572   	st	r0,	NEAR __flgUartFin
                                 2573   
                                 2574   ;;	uart_stop();
                                 2575   CLINEA 0000H 0001H 03ACH 0002H 000DH
00:0010 01-F0'00-00'             2576   	bl	_uart_stop
                                 2577   
                                 2578   ;;	uart_startSend(buffer, len, _funcUartFin); 
                                 2579   CLINEA 0000H 0001H 03ADH 0002H 002CH
00:0014 00'00                    2580   	mov	r0,	#BYTE1 OFFSET __funcUartFin
00:0016 00'01                    2581   	mov	r1,	#BYTE2 OFFSET __funcUartFin
00:0018 5E-F0                    2582   	push	er0
00:001A 44 B2                    2583   	l	er2,	4[fp]
00:001C A5-F0                    2584   	mov	er0,	er10
00:001E 01-F0'00-00'             2585   	bl	_uart_startSend
00:0022 02 E1                    2586   	add	sp,	#2 
                                 2587   
                                 2588   ;;	while(_flgUartFin != 1)
                                 2589   CLINEA 0000H 0000H 03AEH 0001H 0001H
00:0024 02 CE                    2590   	bal	_$L183
                                 2591   
                                 2592   ;;	while(_flgUartFin != 1)
                                 2593   CLINEA 0000H 0000H 03AEH 0002H 0018H
00:0026                          2594   _$L181 :
                                 2595   CBLOCK 183 3 943
                                 2596   
                                 2597   ;;		main_clrWDT();
                                 2598   CLINEA 0000H 0001H 03B0H 0003H 0010H
00:0026 01-F0'00-00'             2599   	bl	_main_clrWDT
                                 2600   CBLOCKEND 183 3 945
                                 2601   
                                 2602   ;;	while(_flgUartFin != 1)
                                 2603   CLINEA 0000H 0000H 03AEH 0001H 0001H
00:002A                          2604   _$L183 :
                                 2605   
                                 2606   ;;	while(_flgUartFin != 1)
                                 2607   CLINEA 0000H 0000H 03AEH 0012H 0022H
00:002A 10-90 00-00'             2608   	l	r0,	NEAR __flgUartFin
00:002E 01 70                    2609   	cmp	r0,	#01h
00:0030 FA C8                    2610   	bne	_$L181
                                 2611   
                                 2612   ;;	return len;
                                 2613   CLINEA 0000H 0001H 03B2H 0002H 000CH
00:0032 44 B0                    2614   	l	er0,	4[fp]
                                 2615   CBLOCKEND 183 2 947
                                 2616   
                                 2617   ;;}
                                 2618   CLINEA 0000H 0000H 03B3H 0001H 0001H
00:0034 1E-FA                    2619   	pop	er10
00:0036 EA-A1                    2620   	mov	sp,	fp
00:0038 1E-FE                    2621   	pop	fp
00:003A 8E-F2                    2622   	pop	pc
                                 2623   CBLOCKEND 183 1 947
                                 2624   CFUNCTIONEND 183
                                 2625   
                                 2626   
  --------------------------     2627   	rseg $$I2C_Read$main
                                 2628   CFUNCTION 184
                                 2629   
00:0000                          2630   _I2C_Read	:
                                 2631   CBLOCK 184 1 962
                                 2632   
                                 2633   ;;{
                                 2634   CLINEA 0000H 0001H 03C2H 0001H 0001H
00:0000 CE-F8                    2635   	push	lr
00:0002 5E-FE                    2636   	push	fp
00:0004 1A-AE                    2637   	mov	fp,	sp
00:0006 6E-F8                    2638   	push	xr8
00:0008 25-FA                    2639   	mov	er10,	er2
00:000A 00-88                    2640   	mov	r8,	r0
                                 2641   CBLOCK 184 2 962
                                 2642   CRET 0006H
                                 2643   CARGUMENT 46H 0001H 001CH "slave_address" 02H 00H 00H
                                 2644   CARGUMENT 46H 0002H 0029H "reg_address" 04H 03H 00H 00H 00H
                                 2645   CARGUMENT 42H 0001H 0004H "reg_address_size" 02H 00H 00H
                                 2646   CARGUMENT 42H 0002H 0006H "buffer" 04H 03H 00H 00H 00H
                                 2647   CARGUMENT 42H 0001H 0008H "size" 02H 00H 00H
                                 2648   
                                 2649   ;;	_flgI2CFin = 0;
                                 2650   CLINEA 0000H 0001H 03C3H 0002H 0010H
00:000C 00 00                    2651   	mov	r0,	#00h
00:000E 11-90 00-00'             2652   	st	r0,	NEAR __flgI2CFin
                                 2653   
                                 2654   ;;	i2c_stop();	
                                 2655   CLINEA 0000H 0001H 03C4H 0002H 000DH
00:0012 01-F0'00-00'             2656   	bl	_i2c_stop
                                 2657   
                                 2658   ;;	i2c_startReceive(slave_address, reg_address, reg_address_size, buffer, size, (cbfI2c)_funcI2CFin);
                                 2659   CLINEA 0000H 0001H 03C5H 0002H 0063H
00:0016 00'00                    2660   	mov	r0,	#BYTE1 OFFSET __funcI2CFin
00:0018 00'01                    2661   	mov	r1,	#BYTE2 OFFSET __funcI2CFin
00:001A 5E-F0                    2662   	push	er0
00:001C 48 D0                    2663   	l	r0,	8[fp]
00:001E 00 01                    2664   	mov	r1,	#00h
00:0020 5E-F0                    2665   	push	er0
00:0022 46 B0                    2666   	l	er0,	6[fp]
00:0024 5E-F0                    2667   	push	er0
00:0026 44 D0                    2668   	l	r0,	4[fp]
00:0028 00 01                    2669   	mov	r1,	#00h
00:002A 5E-F0                    2670   	push	er0
00:002C A5-F2                    2671   	mov	er2,	er10
00:002E 80-80                    2672   	mov	r0,	r8
00:0030 01-F0'00-00'             2673   	bl	_i2c_startReceive
00:0034 08 E1                    2674   	add	sp,	#8 
                                 2675   
                                 2676   ;;	while(_flgI2CFin != 1)
                                 2677   CLINEA 0000H 0000H 03C6H 0001H 0001H
00:0036 02 CE                    2678   	bal	_$L189
                                 2679   
                                 2680   ;;	while(_flgI2CFin != 1)
                                 2681   CLINEA 0000H 0000H 03C6H 0002H 0017H
00:0038                          2682   _$L187 :
                                 2683   CBLOCK 184 3 967
                                 2684   
                                 2685   ;;		main_clrWDT();
                                 2686   CLINEA 0000H 0001H 03C8H 0003H 0010H
00:0038 01-F0'00-00'             2687   	bl	_main_clrWDT
                                 2688   CBLOCKEND 184 3 969
                                 2689   
                                 2690   ;;	while(_flgI2CFin != 1)
                                 2691   CLINEA 0000H 0000H 03C6H 0001H 0001H
00:003C                          2692   _$L189 :
                                 2693   
                                 2694   ;;	while(_flgI2CFin != 1)
                                 2695   CLINEA 0000H 0000H 03C6H 0012H 0022H
00:003C 10-90 00-00'             2696   	l	r0,	NEAR __flgI2CFin
00:0040 01 70                    2697   	cmp	r0,	#01h
00:0042 FA C8                    2698   	bne	_$L187
                                 2699   CBLOCKEND 184 2 970
                                 2700   
                                 2701   ;;}
                                 2702   CLINEA 0000H 0001H 03CAH 0001H 0001H
00:0044 2E-F8                    2703   	pop	xr8
00:0046 EA-A1                    2704   	mov	sp,	fp
00:0048 1E-FE                    2705   	pop	fp
00:004A 8E-F2                    2706   	pop	pc
                                 2707   CBLOCKEND 184 1 970
                                 2708   CFUNCTIONEND 184
                                 2709   
                                 2710   
  --------------------------     2711   	rseg $$I2C_Write$main
                                 2712   CFUNCTION 185
                                 2713   
00:0000                          2714   _I2C_Write	:
                                 2715   CBLOCK 185 1 985
                                 2716   
                                 2717   ;;{
                                 2718   CLINEA 0000H 0001H 03D9H 0001H 0001H
00:0000 CE-F8                    2719   	push	lr
00:0002 5E-FE                    2720   	push	fp
00:0004 1A-AE                    2721   	mov	fp,	sp
00:0006 6E-F8                    2722   	push	xr8
00:0008 25-FA                    2723   	mov	er10,	er2
00:000A 00-88                    2724   	mov	r8,	r0
                                 2725   CBLOCK 185 2 985
                                 2726   CRET 0006H
                                 2727   CARGUMENT 46H 0001H 001CH "slave_address" 02H 00H 00H
                                 2728   CARGUMENT 46H 0002H 0029H "reg_address" 04H 03H 00H 00H 00H
                                 2729   CARGUMENT 42H 0001H 0004H "reg_address_size" 02H 00H 00H
                                 2730   CARGUMENT 42H 0002H 0006H "buffer" 04H 03H 00H 00H 00H
                                 2731   CARGUMENT 42H 0001H 0008H "size" 02H 00H 00H
                                 2732   
                                 2733   ;;	_flgI2CFin = 0;
                                 2734   CLINEA 0000H 0001H 03DAH 0002H 0010H
00:000C 00 00                    2735   	mov	r0,	#00h
00:000E 11-90 00-00'             2736   	st	r0,	NEAR __flgI2CFin
                                 2737   
                                 2738   ;;	i2c_stop();	
                                 2739   CLINEA 0000H 0001H 03DBH 0002H 000DH
00:0012 01-F0'00-00'             2740   	bl	_i2c_stop
                                 2741   
                                 2742   ;;	i2c_startSend(slave_address, reg_address, reg_address_size, buffer, size, (cbfI2c)_funcI2CFin);
                                 2743   CLINEA 0000H 0001H 03DCH 0002H 0060H
00:0016 00'00                    2744   	mov	r0,	#BYTE1 OFFSET __funcI2CFin
00:0018 00'01                    2745   	mov	r1,	#BYTE2 OFFSET __funcI2CFin
00:001A 5E-F0                    2746   	push	er0
00:001C 48 D0                    2747   	l	r0,	8[fp]
00:001E 00 01                    2748   	mov	r1,	#00h
00:0020 5E-F0                    2749   	push	er0
00:0022 46 B0                    2750   	l	er0,	6[fp]
00:0024 5E-F0                    2751   	push	er0
00:0026 44 D0                    2752   	l	r0,	4[fp]
00:0028 00 01                    2753   	mov	r1,	#00h
00:002A 5E-F0                    2754   	push	er0
00:002C A5-F2                    2755   	mov	er2,	er10
00:002E 80-80                    2756   	mov	r0,	r8
00:0030 01-F0'00-00'             2757   	bl	_i2c_startSend
00:0034 08 E1                    2758   	add	sp,	#8 
                                 2759   
                                 2760   ;;	while(_flgI2CFin != 1)
                                 2761   CLINEA 0000H 0000H 03DDH 0001H 0001H
00:0036 02 CE                    2762   	bal	_$L195
                                 2763   
                                 2764   ;;	while(_flgI2CFin != 1)
                                 2765   CLINEA 0000H 0000H 03DDH 0002H 0017H
00:0038                          2766   _$L193 :
                                 2767   CBLOCK 185 3 990
                                 2768   
                                 2769   ;;		main_clrWDT();
                                 2770   CLINEA 0000H 0001H 03DFH 0003H 0010H
00:0038 01-F0'00-00'             2771   	bl	_main_clrWDT
                                 2772   CBLOCKEND 185 3 992
                                 2773   
                                 2774   ;;	while(_flgI2CFin != 1)
                                 2775   CLINEA 0000H 0000H 03DDH 0001H 0001H
00:003C                          2776   _$L195 :
                                 2777   
                                 2778   ;;	while(_flgI2CFin != 1)
                                 2779   CLINEA 0000H 0000H 03DDH 0012H 0022H
00:003C 10-90 00-00'             2780   	l	r0,	NEAR __flgI2CFin
00:0040 01 70                    2781   	cmp	r0,	#01h
00:0042 FA C8                    2782   	bne	_$L193
                                 2783   CBLOCKEND 185 2 993
                                 2784   
                                 2785   ;;}
                                 2786   CLINEA 0000H 0001H 03E1H 0001H 0001H
00:0044 2E-F8                    2787   	pop	xr8
00:0046 EA-A1                    2788   	mov	sp,	fp
00:0048 1E-FE                    2789   	pop	fp
00:004A 8E-F2                    2790   	pop	pc
                                 2791   CBLOCKEND 185 1 993
                                 2792   CFUNCTIONEND 185
                                 2793   
                                 2794   
  --------------------------     2795   	rseg $$_funcUartFin$main
                                 2796   CFUNCTION 187
                                 2797   
00:0000                          2798   __funcUartFin	:
                                 2799   CBLOCK 187 1 1004
                                 2800   
                                 2801   ;;{
                                 2802   CLINEA 0000H 0001H 03ECH 0001H 0001H
00:0000 CE-F8                    2803   	push	lr
                                 2804   CBLOCK 187 2 1004
                                 2805   CRET 0000H
                                 2806   CARGUMENT 46H 0002H 0000H "size" 02H 00H 01H
                                 2807   CARGUMENT 46H 0001H 0000H "errStat" 02H 00H 00H
                                 2808   
                                 2809   ;;	uart_continue();					// Function in UART.c: process to continue send and receive...
                                 2810   CLINEA 0000H 0001H 03EDH 0002H 0054H
00:0002 01-F0'00-00'             2811   	bl	_uart_continue
                                 2812   
                                 2813   ;;	_flgUartFin = (unsigned char)FLG_SET;
                                 2814   CLINEA 0000H 0001H 03EEH 0002H 0026H
00:0006 01 00                    2815   	mov	r0,	#01h
00:0008 11-90 00-00'             2816   	st	r0,	NEAR __flgUartFin
                                 2817   
                                 2818   ;;	main_reqNotHalt();				// uncommented 5/2/2013
                                 2819   CLINEA 0000H 0001H 03EFH 0002H 002EH
00:000C 01-F0'00-00'             2820   	bl	_main_reqNotHalt
                                 2821   CBLOCKEND 187 2 1008
                                 2822   
                                 2823   ;;}
                                 2824   CLINEA 0000H 0001H 03F0H 0001H 0001H
00:0010 8E-F2                    2825   	pop	pc
                                 2826   CBLOCKEND 187 1 1008
                                 2827   CFUNCTIONEND 187
                                 2828   
                                 2829   
  --------------------------     2830   	rseg $$_funcI2CFin$main
                                 2831   CFUNCTION 188
                                 2832   
00:0000                          2833   __funcI2CFin	:
                                 2834   CBLOCK 188 1 1019
                                 2835   
                                 2836   ;;{
                                 2837   CLINEA 0000H 0001H 03FBH 0001H 0001H
00:0000 CE-F8                    2838   	push	lr
                                 2839   CBLOCK 188 2 1019
                                 2840   CRET 0000H
                                 2841   CARGUMENT 46H 0002H 0000H "size" 02H 00H 01H
                                 2842   CARGUMENT 46H 0001H 0000H "errStat" 02H 00H 00H
                                 2843   
                                 2844   ;;	i2c_continue();					// Function in UART.c: process to continue send and receive...
                                 2845   CLINEA 0000H 0001H 03FCH 0002H 0053H
00:0002 01-F0'00-00'             2846   	bl	_i2c_continue
                                 2847   
                                 2848   ;;	_flgI2CFin = (unsigned char)FLG_SET;
                                 2849   CLINEA 0000H 0001H 03FDH 0002H 0025H
00:0006 01 00                    2850   	mov	r0,	#01h
00:0008 11-90 00-00'             2851   	st	r0,	NEAR __flgI2CFin
                                 2852   
                                 2853   ;;	main_reqNotHalt();				// uncommented 5/2/2013
                                 2854   CLINEA 0000H 0001H 03FEH 0002H 002EH
00:000C 01-F0'00-00'             2855   	bl	_main_reqNotHalt
                                 2856   CBLOCKEND 188 2 1023
                                 2857   
                                 2858   ;;}
                                 2859   CLINEA 0000H 0001H 03FFH 0001H 0001H
00:0010 8E-F2                    2860   	pop	pc
                                 2861   CBLOCKEND 188 1 1023
                                 2862   CFUNCTIONEND 188
                                 2863   
                                 2864   
  --------------------------     2865   	rseg $$_intI2c$main
                                 2866   CFUNCTION 192
                                 2867   
00:0000                          2868   __intI2c	:
                                 2869   CBLOCK 192 1 1033
                                 2870   
                                 2871   ;;{
                                 2872   CLINEA 0000H 0001H 0409H 0001H 0001H
00:0000 CE-F8                    2873   	push	lr
                                 2874   CBLOCK 192 2 1033
                                 2875   CRET 0000H
                                 2876   
                                 2877   ;;	(void)i2c_continue();
                                 2878   CLINEA 0000H 0001H 040AH 0002H 0016H
00:0002 01-F0'00-00'             2879   	bl	_i2c_continue
                                 2880   
                                 2881   ;;	main_reqNotHalt();
                                 2882   CLINEA 0000H 0001H 040BH 0002H 0013H
00:0006 01-F0'00-00'             2883   	bl	_main_reqNotHalt
                                 2884   CBLOCKEND 192 2 1036
                                 2885   
                                 2886   ;;}
                                 2887   CLINEA 0000H 0001H 040CH 0001H 0001H
00:000A 8E-F2                    2888   	pop	pc
                                 2889   CBLOCKEND 192 1 1036
                                 2890   CFUNCTIONEND 192
                                 2891   
                                 2892   
  --------------------------     2893   	rseg $$_intPB2$main
                                 2894   CFUNCTION 193
                                 2895   
00:0000                          2896   __intPB2	:
                                 2897   CBLOCK 193 1 1046
                                 2898   
                                 2899   ;;{
                                 2900   CLINEA 0000H 0001H 0416H 0001H 0001H
                                 2901   CBLOCK 193 2 1046
                                 2902   
                                 2903   ;;	_flgPB2Int = 1;
                                 2904   CLINEA 0000H 0001H 0417H 0002H 0010H
00:0000 01 00                    2905   	mov	r0,	#01h
00:0002 11-90 00-00'             2906   	st	r0,	NEAR __flgPB2Int
                                 2907   CBLOCKEND 193 2 1049
                                 2908   
                                 2909   ;;}
                                 2910   CLINEA 0000H 0001H 0419H 0001H 0001H
00:0006 1F-FE                    2911   	rt
                                 2912   CBLOCKEND 193 1 1049
                                 2913   CFUNCTIONEND 193
                                 2914   
                                 2915   
  --------------------------     2916   	rseg $$checkI2C$main
                                 2917   CFUNCTION 189
                                 2918   
00:0000                          2919   _checkI2C	:
                                 2920   CBLOCK 189 1 1059
                                 2921   
                                 2922   ;;{
                                 2923   CLINEA 0000H 0001H 0423H 0001H 0001H
00:0000 CE-F8                    2924   	push	lr
                                 2925   CBLOCK 189 2 1059
                                 2926   CRET 0000H
                                 2927   CLOCAL 47H 0002H 0024H 0002H "ret" 02H 00H 01H
                                 2928   
                                 2929   ;;	while (ret != 1) {
                                 2930   CLINEA 0000H 0000H 0428H 0002H 0013H
00:0002                          2931   _$L203 :
                                 2932   CBLOCK 189 3 1064
                                 2933   
                                 2934   ;;		ret = i2c_continue();
                                 2935   CLINEA 0000H 0000H 0429H 0003H 0017H
00:0002 01-F0'00-00'             2936   	bl	_i2c_continue
                                 2937   CBLOCK 189 4 1066
                                 2938   CBLOCKEND 189 4 1068
                                 2939   CBLOCKEND 189 3 1069
                                 2940   
                                 2941   ;;	while (ret != 1) {
                                 2942   CLINEA 0000H 0000H 0428H 0012H 0022H
00:0006 01 70                    2943   	cmp	r0,	#01h
00:0008 00 51                    2944   	cmpc	r1,	#00h
00:000A FB C8                    2945   	bne	_$L203
                                 2946   CBLOCKEND 189 2 1070
                                 2947   
                                 2948   ;;}
                                 2949   CLINEA 0000H 0001H 042EH 0001H 0001H
00:000C 8E-F2                    2950   	pop	pc
                                 2951   CBLOCKEND 189 1 1070
                                 2952   CFUNCTIONEND 189
                                 2953   
                                 2954   
  --------------------------     2955   	rseg $$main_reqNotHalt$main
                                 2956   CFUNCTION 190
                                 2957   
00:0000                          2958   _main_reqNotHalt	:
                                 2959   CBLOCK 190 1 1080
                                 2960   
                                 2961   ;;{
                                 2962   CLINEA 0000H 0001H 0438H 0001H 0001H
                                 2963   CBLOCK 190 2 1080
                                 2964   
                                 2965   ;;	_reqNotHalt = (unsigned char)FLG_SET;
                                 2966   CLINEA 0000H 0001H 0439H 0002H 0026H
00:0000 01 00                    2967   	mov	r0,	#01h
00:0002 11-90 00-00'             2968   	st	r0,	NEAR __reqNotHalt
                                 2969   CBLOCKEND 190 2 1082
                                 2970   
                                 2971   ;;}
                                 2972   CLINEA 0000H 0001H 043AH 0001H 0001H
00:0006 1F-FE                    2973   	rt
                                 2974   CBLOCKEND 190 1 1082
                                 2975   CFUNCTIONEND 190
                                 2976   
                                 2977   
  --------------------------     2978   	rseg $$_intUart$main
                                 2979   CFUNCTION 191
                                 2980   
00:0000                          2981   __intUart	:
                                 2982   CBLOCK 191 1 1092
                                 2983   
                                 2984   ;;{
                                 2985   CLINEA 0000H 0001H 0444H 0001H 0001H
                                 2986   CBLOCK 191 2 1092
                                 2987   
                                 2988   ;;		uart_continue(); //in UART.c: process to continue send and receive...
                                 2989   CLINEA 0000H 0001H 0445H 0003H 0047H
00:0000 00-F0'00-00'             2990   	b	_uart_continue
                                 2991   CBLOCKEND 191 2 1094
                                 2992   CLINEA 0000H 0001H 0446H 0001H 0001H
                                 2993   CBLOCKEND 191 1 1094
                                 2994   CFUNCTIONEND 191
                                 2995   
                                 2996   
  --------------------------     2997   	rseg $$SetOSC$main
                                 2998   CFUNCTION 179
                                 2999   
00:0000                          3000   _SetOSC	:
                                 3001   CBLOCK 179 1 1099
                                 3002   
                                 3003   ;;static void SetOSC(void){
                                 3004   CLINEA 0000H 0001H 044BH 0001H 0019H
                                 3005   CBLOCK 179 2 1099
                                 3006   
                                 3007   ;;		SYSC0  = 0;			// Used to select the frequency of the HSCLK => 00=8.192MHz.
                                 3008   CLINEA 0000H 0001H 044EH 0003H 004CH
00:0000 82-A0 02-F0              3009   	rb	0f002h.0
                                 3010   
                                 3011   ;;		SYSC1  = 0;			//...
                                 3012   CLINEA 0000H 0001H 044FH 0003H 0015H
00:0004 92-A0 02-F0              3013   	rb	0f002h.1
                                 3014   
                                 3015   ;;		OSCM1  = 1;			// 10 => Built-in PLL oscillation mode
                                 3016   CLINEA 0000H 0001H 0450H 0003H 0036H
00:0008 B0-A0 02-F0              3017   	sb	0f002h.3
                                 3018   
                                 3019   ;;		OSCM0  = 0;			//...
                                 3020   CLINEA 0000H 0001H 0451H 0003H 0015H
00:000C A2-A0 02-F0              3021   	rb	0f002h.2
                                 3022   
                                 3023   ;;		ENOSC  = 1;			// 1=Enable High Speed Oscillator...
                                 3024   CLINEA 0000H 0001H 0454H 0003H 0034H
00:0010 90-A0 03-F0              3025   	sb	0f003h.1
                                 3026   
                                 3027   ;;		SYSCLK = 1;			// Select System Clock: 1=HSCLK; 0=LSCLK 
                                 3028   CLINEA 0000H 0001H 0455H 0003H 0039H
00:0014 80-A0 03-F0              3029   	sb	0f003h.0
                                 3030   
                                 3031   ;;		LPLL   = 1;			// 1=Enables the use of PLL oscillation - ADDED 4/30/2013
                                 3032   CLINEA 0000H 0001H 0456H 0003H 0049H
00:0018 F0-A0 03-F0              3033   	sb	0f003h.7
                                 3034   
                                 3035   ;;	__EI();					//INT enable 
                                 3036   CLINEA 0000H 0001H 0458H 0002H 001AH
00:001C 08-ED                    3037   	ei
                                 3038   CBLOCKEND 179 2 1113
                                 3039   
                                 3040   ;;}
                                 3041   CLINEA 0000H 0001H 0459H 0001H 0001H
00:001E 1F-FE                    3042   	rt
                                 3043   CBLOCKEND 179 1 1113
                                 3044   CFUNCTIONEND 179
                                 3045   
                                 3046   
  --------------------------     3047   	rseg $$analog_comparator$main
                                 3048   CFUNCTION 223
                                 3049   
00:0000                          3050   _analog_comparator	:
                                 3051   CBLOCK 223 1 1120
                                 3052   
                                 3053   ;;void analog_comparator(void){
                                 3054   CLINEA 0000H 0001H 0460H 0001H 001DH
                                 3055   CBLOCK 223 2 1120
                                 3056   
                                 3057   ;;	CMP0EN  = 0x01; 	// Comparator ON...
                                 3058   CLINEA 0000H 0001H 0476H 0002H 0025H
00:0000 80-A0 50-F9              3059   	sb	0f950h.0
                                 3060   
                                 3061   ;;	CMP0E1  = 0x00; 	// No Interupt...
                                 3062   CLINEA 0000H 0001H 0477H 0002H 0023H
00:0004 92-A0 51-F9              3063   	rb	0f951h.1
                                 3064   
                                 3065   ;;	CMP0E0  = 0x00;
                                 3066   CLINEA 0000H 0001H 0478H 0002H 0010H
00:0008 82-A0 51-F9              3067   	rb	0f951h.0
                                 3068   
                                 3069   ;;	CMP0SM1 = 0x00; 	// Detect without Sampling... 
                                 3070   CLINEA 0000H 0001H 0479H 0002H 0030H
00:000C B2-A0 51-F9              3071   	rb	0f951h.3
                                 3072   
                                 3073   ;;	CMP0RFS = 0x01; 	// Differential Input on B5
                                 3074   CLINEA 0000H 0001H 047AH 0002H 002DH
00:0010 C0-A0 51-F9              3075   	sb	0f951h.4
                                 3076   
                                 3077   ;;	CMP0EN  = 0x00;
                                 3078   CLINEA 0000H 0001H 047DH 0002H 0010H
00:0014 82-A0 50-F9              3079   	rb	0f950h.0
                                 3080   CBLOCKEND 223 2 1152
                                 3081   
                                 3082   ;;}
                                 3083   CLINEA 0000H 0001H 0480H 0001H 0001H
00:0018 1F-FE                    3084   	rt
                                 3085   CBLOCKEND 223 1 1152
                                 3086   CFUNCTIONEND 223
                                 3087   
                                 3088   
  --------------------------     3089   	rseg $$PortA_Low$main
                                 3090   CFUNCTION 180
                                 3091   
00:0000                          3092   _PortA_Low	:
                                 3093   CBLOCK 180 1 1160
                                 3094   
                                 3095   ;;void PortA_Low(void){
                                 3096   CLINEA 0000H 0001H 0488H 0001H 0015H
                                 3097   CBLOCK 180 2 1160
                                 3098   
                                 3099   ;;	PA0DIR = 0;		// PortA Bit0 set to Output Mode...
                                 3100   CLINEA 0000H 0001H 0492H 0002H 0031H
00:0000 82-A0 51-F2              3101   	rb	0f251h.0
                                 3102   
                                 3103   ;;	PA1DIR = 0;		// PortA Bit1 set to Output Mode...
                                 3104   CLINEA 0000H 0001H 0493H 0002H 0031H
00:0004 92-A0 51-F2              3105   	rb	0f251h.1
                                 3106   
                                 3107   ;;	PA2DIR = 0;		// PortA Bit2 set to Output Mode...
                                 3108   CLINEA 0000H 0001H 0494H 0002H 0031H
00:0008 A2-A0 51-F2              3109   	rb	0f251h.2
                                 3110   
                                 3111   ;;	PA0C1  = 1;		// PortA Bit0 set to CMOS Output...
                                 3112   CLINEA 0000H 0001H 0497H 0002H 0031H
00:000C 80-A0 53-F2              3113   	sb	0f253h.0
                                 3114   
                                 3115   ;;	PA0C0  = 1;		
                                 3116   CLINEA 0000H 0001H 0498H 0002H 000EH
00:0010 80-A0 52-F2              3117   	sb	0f252h.0
                                 3118   
                                 3119   ;;	PA1C1  = 1;		// PortA Bit1 set to CMOS Output...
                                 3120   CLINEA 0000H 0001H 0499H 0002H 0031H
00:0014 90-A0 53-F2              3121   	sb	0f253h.1
                                 3122   
                                 3123   ;;	PA1C0  = 1;	
                                 3124   CLINEA 0000H 0001H 049AH 0002H 000DH
00:0018 90-A0 52-F2              3125   	sb	0f252h.1
                                 3126   
                                 3127   ;;	PA2C1  = 1;		// PortA Bit2 set to CMOS Output...
                                 3128   CLINEA 0000H 0001H 049BH 0002H 0031H
00:001C A0-A0 53-F2              3129   	sb	0f253h.2
                                 3130   
                                 3131   ;;	PA2C0  = 1;	
                                 3132   CLINEA 0000H 0001H 049CH 0002H 000DH
00:0020 A0-A0 52-F2              3133   	sb	0f252h.2
                                 3134   
                                 3135   ;;	PA0MD1  = 0;	// PortA Bit0 set to General Purpose Output...
                                 3136   CLINEA 0000H 0001H 049FH 0002H 003CH
00:0024 82-A0 55-F2              3137   	rb	0f255h.0
                                 3138   
                                 3139   ;;	PA0MD0  = 0;	
                                 3140   CLINEA 0000H 0001H 04A0H 0002H 000EH
00:0028 82-A0 54-F2              3141   	rb	0f254h.0
                                 3142   
                                 3143   ;;	PA1MD1  = 0;	// PortA Bit1 set to General Purpose Output...
                                 3144   CLINEA 0000H 0001H 04A1H 0002H 003CH
00:002C 92-A0 55-F2              3145   	rb	0f255h.1
                                 3146   
                                 3147   ;;	PA1MD0  = 0;	
                                 3148   CLINEA 0000H 0001H 04A2H 0002H 000EH
00:0030 92-A0 54-F2              3149   	rb	0f254h.1
                                 3150   
                                 3151   ;;	PA2MD1  = 0;	// PortA Bit2 set to General Purpose Output...
                                 3152   CLINEA 0000H 0001H 04A3H 0002H 003CH
00:0034 A2-A0 55-F2              3153   	rb	0f255h.2
                                 3154   
                                 3155   ;;	PA2MD0  = 0;	
                                 3156   CLINEA 0000H 0001H 04A4H 0002H 000EH
00:0038 A2-A0 54-F2              3157   	rb	0f254h.2
                                 3158   
                                 3159   ;;	PA0D = 0;		// A.0 Output OFF....
                                 3160   CLINEA 0000H 0001H 04A7H 0002H 0021H
00:003C 82-A0 50-F2              3161   	rb	0f250h.0
                                 3162   
                                 3163   ;;	PA1D = 0;		// A.1 Output OFF....
                                 3164   CLINEA 0000H 0001H 04A8H 0002H 0021H
00:0040 92-A0 50-F2              3165   	rb	0f250h.1
                                 3166   
                                 3167   ;;	PA2D = 0;		// A.2 Output OFF....
                                 3168   CLINEA 0000H 0001H 04A9H 0002H 0021H
00:0044 A2-A0 50-F2              3169   	rb	0f250h.2
                                 3170   
                                 3171   ;;	main_clrWDT(); 	// Clear WDT
                                 3172   CLINEA 0000H 0001H 04ABH 0002H 001DH
00:0048 00-F0'00-00'             3173   	b	_main_clrWDT
                                 3174   CBLOCKEND 180 2 1197
                                 3175   CLINEA 0000H 0001H 04ADH 0001H 0001H
                                 3176   CBLOCKEND 180 1 1197
                                 3177   CFUNCTIONEND 180
                                 3178   
                                 3179   
  --------------------------     3180   	rseg $$PortB_Low$main
                                 3181   CFUNCTION 181
                                 3182   
00:0000                          3183   _PortB_Low	:
                                 3184   CBLOCK 181 1 1203
                                 3185   
                                 3186   ;;void PortB_Low(void){
                                 3187   CLINEA 0000H 0001H 04B3H 0001H 0015H
                                 3188   CBLOCK 181 2 1203
                                 3189   
                                 3190   ;;	PB0DIR = 0;		// PortB Bit0 set to Output Mode...
                                 3191   CLINEA 0000H 0001H 04BDH 0002H 0031H
00:0000 82-A0 59-F2              3192   	rb	0f259h.0
                                 3193   
                                 3194   ;;	PB1DIR = 0;		// PortB Bit1 set to Output Mode...
                                 3195   CLINEA 0000H 0001H 04BEH 0002H 0031H
00:0004 92-A0 59-F2              3196   	rb	0f259h.1
                                 3197   
                                 3198   ;;	PB2DIR = 0;		// PortB Bit2 set to Output Mode...
                                 3199   CLINEA 0000H 0001H 04BFH 0002H 0031H
00:0008 A2-A0 59-F2              3200   	rb	0f259h.2
                                 3201   
                                 3202   ;;	PB3DIR = 0;		// PortB Bit3 set to Output Mode...
                                 3203   CLINEA 0000H 0001H 04C0H 0002H 0031H
00:000C B2-A0 59-F2              3204   	rb	0f259h.3
                                 3205   
                                 3206   ;;	PB4DIR = 0;		// PortB Bit4 set to Output Mode...
                                 3207   CLINEA 0000H 0001H 04C1H 0002H 0031H
00:0010 C2-A0 59-F2              3208   	rb	0f259h.4
                                 3209   
                                 3210   ;;	PB5DIR = 0;		// PortB Bit5 set to Output Mode...
                                 3211   CLINEA 0000H 0001H 04C2H 0002H 0031H
00:0014 D2-A0 59-F2              3212   	rb	0f259h.5
                                 3213   
                                 3214   ;;	PB6DIR = 0;		// PortB Bit6 set to Output Mode...
                                 3215   CLINEA 0000H 0001H 04C3H 0002H 0031H
00:0018 E2-A0 59-F2              3216   	rb	0f259h.6
                                 3217   
                                 3218   ;;	PB7DIR = 0;		// PortB Bit7 set to Output Mode...
                                 3219   CLINEA 0000H 0001H 04C4H 0002H 0031H
00:001C F2-A0 59-F2              3220   	rb	0f259h.7
                                 3221   
                                 3222   ;;	PB0C1  = 1;		// PortB Bit0 set to CMOS Output...
                                 3223   CLINEA 0000H 0001H 04C7H 0002H 0031H
00:0020 80-A0 5B-F2              3224   	sb	0f25bh.0
                                 3225   
                                 3226   ;;	PB0C0  = 1;		
                                 3227   CLINEA 0000H 0001H 04C8H 0002H 000EH
00:0024 80-A0 5A-F2              3228   	sb	0f25ah.0
                                 3229   
                                 3230   ;;	PB1C1  = 1;		// PortB Bit1 set to CMOS Output...
                                 3231   CLINEA 0000H 0001H 04C9H 0002H 0031H
00:0028 90-A0 5B-F2              3232   	sb	0f25bh.1
                                 3233   
                                 3234   ;;	PB1C0  = 1;	
                                 3235   CLINEA 0000H 0001H 04CAH 0002H 000DH
00:002C 90-A0 5A-F2              3236   	sb	0f25ah.1
                                 3237   
                                 3238   ;;	PB2C1  = 1;		// PortB Bit2 set to CMOS Output...
                                 3239   CLINEA 0000H 0001H 04CBH 0002H 0031H
00:0030 A0-A0 5B-F2              3240   	sb	0f25bh.2
                                 3241   
                                 3242   ;;	PB2C0  = 1;	
                                 3243   CLINEA 0000H 0001H 04CCH 0002H 000DH
00:0034 A0-A0 5A-F2              3244   	sb	0f25ah.2
                                 3245   
                                 3246   ;;	PB3C1  = 1;		// PortB Bit3 set to CMOS Output...
                                 3247   CLINEA 0000H 0001H 04CDH 0002H 0031H
00:0038 B0-A0 5B-F2              3248   	sb	0f25bh.3
                                 3249   
                                 3250   ;;	PB3C0  = 1;		
                                 3251   CLINEA 0000H 0001H 04CEH 0002H 000EH
00:003C B0-A0 5A-F2              3252   	sb	0f25ah.3
                                 3253   
                                 3254   ;;	PB4C1  = 1;		// PortB Bit4 set to CMOS Output...
                                 3255   CLINEA 0000H 0001H 04CFH 0002H 0031H
00:0040 C0-A0 5B-F2              3256   	sb	0f25bh.4
                                 3257   
                                 3258   ;;	PB4C0  = 1;	
                                 3259   CLINEA 0000H 0001H 04D0H 0002H 000DH
00:0044 C0-A0 5A-F2              3260   	sb	0f25ah.4
                                 3261   
                                 3262   ;;	PB5C1  = 1;		// PortB Bit5 set to CMOS Output...
                                 3263   CLINEA 0000H 0001H 04D1H 0002H 0031H
00:0048 D0-A0 5B-F2              3264   	sb	0f25bh.5
                                 3265   
                                 3266   ;;	PB5C0  = 1;	
                                 3267   CLINEA 0000H 0001H 04D2H 0002H 000DH
00:004C D0-A0 5A-F2              3268   	sb	0f25ah.5
                                 3269   
                                 3270   ;;	PB6C1  = 1;		// PortB Bit6 set to CMOS Output...
                                 3271   CLINEA 0000H 0001H 04D3H 0002H 0031H
00:0050 E0-A0 5B-F2              3272   	sb	0f25bh.6
                                 3273   
                                 3274   ;;	PB6C0  = 1;	
                                 3275   CLINEA 0000H 0001H 04D4H 0002H 000DH
00:0054 E0-A0 5A-F2              3276   	sb	0f25ah.6
                                 3277   
                                 3278   ;;	PB7C1  = 1;		// PortB Bit7 set to CMOS Output...
                                 3279   CLINEA 0000H 0001H 04D5H 0002H 0031H
00:0058 F0-A0 5B-F2              3280   	sb	0f25bh.7
                                 3281   
                                 3282   ;;	PB7C0  = 1;	
                                 3283   CLINEA 0000H 0001H 04D6H 0002H 000DH
00:005C F0-A0 5A-F2              3284   	sb	0f25ah.7
                                 3285   
                                 3286   ;;	PB0MD1  = 0;	// PortB Bit0 set to General Purpose Output...
                                 3287   CLINEA 0000H 0001H 04D9H 0002H 003CH
00:0060 82-A0 5D-F2              3288   	rb	0f25dh.0
                                 3289   
                                 3290   ;;	PB0MD0  = 0;	
                                 3291   CLINEA 0000H 0001H 04DAH 0002H 000EH
00:0064 82-A0 5C-F2              3292   	rb	0f25ch.0
                                 3293   
                                 3294   ;;	PB1MD1  = 0;	// PortB Bit1 set to General Purpose Output...
                                 3295   CLINEA 0000H 0001H 04DBH 0002H 003CH
00:0068 92-A0 5D-F2              3296   	rb	0f25dh.1
                                 3297   
                                 3298   ;;	PB1MD0  = 0;	
                                 3299   CLINEA 0000H 0001H 04DCH 0002H 000EH
00:006C 92-A0 5C-F2              3300   	rb	0f25ch.1
                                 3301   
                                 3302   ;;	PB2MD1  = 0;	// PortB Bit2 set to General Purpose Output...
                                 3303   CLINEA 0000H 0001H 04DDH 0002H 003CH
00:0070 A2-A0 5D-F2              3304   	rb	0f25dh.2
                                 3305   
                                 3306   ;;	PB2MD0  = 0;	
                                 3307   CLINEA 0000H 0001H 04DEH 0002H 000EH
00:0074 A2-A0 5C-F2              3308   	rb	0f25ch.2
                                 3309   
                                 3310   ;;	PB3MD1  = 0;	// PortB Bit3 set to General Purpose Output...
                                 3311   CLINEA 0000H 0001H 04DFH 0002H 003CH
00:0078 B2-A0 5D-F2              3312   	rb	0f25dh.3
                                 3313   
                                 3314   ;;	PB3MD0  = 0;	
                                 3315   CLINEA 0000H 0001H 04E0H 0002H 000EH
00:007C B2-A0 5C-F2              3316   	rb	0f25ch.3
                                 3317   
                                 3318   ;;	PB4MD1  = 0;	// PortB Bit4 set to General Purpose Output...
                                 3319   CLINEA 0000H 0001H 04E1H 0002H 003CH
00:0080 C2-A0 5D-F2              3320   	rb	0f25dh.4
                                 3321   
                                 3322   ;;	PB4MD0  = 0;	
                                 3323   CLINEA 0000H 0001H 04E2H 0002H 000EH
00:0084 C2-A0 5C-F2              3324   	rb	0f25ch.4
                                 3325   
                                 3326   ;;	PB5MD1  = 0;	// PortB Bit5 set to General Purpose Output...
                                 3327   CLINEA 0000H 0001H 04E3H 0002H 003CH
00:0088 D2-A0 5D-F2              3328   	rb	0f25dh.5
                                 3329   
                                 3330   ;;	PB5MD0  = 0;
                                 3331   CLINEA 0000H 0001H 04E4H 0002H 000DH
00:008C D2-A0 5C-F2              3332   	rb	0f25ch.5
                                 3333   
                                 3334   ;;	PB6MD1  = 0;	// PortB Bit6 set to General Purpose Output...
                                 3335   CLINEA 0000H 0001H 04E5H 0002H 003CH
00:0090 E2-A0 5D-F2              3336   	rb	0f25dh.6
                                 3337   
                                 3338   ;;	PB6MD0  = 0;	
                                 3339   CLINEA 0000H 0001H 04E6H 0002H 000EH
00:0094 E2-A0 5C-F2              3340   	rb	0f25ch.6
                                 3341   
                                 3342   ;;	PB7MD1  = 0;	// PortB Bit7 set to General Purpose Output...
                                 3343   CLINEA 0000H 0001H 04E7H 0002H 003CH
00:0098 F2-A0 5D-F2              3344   	rb	0f25dh.7
                                 3345   
                                 3346   ;;	PB7MD0  = 0;
                                 3347   CLINEA 0000H 0001H 04E8H 0002H 000DH
00:009C F2-A0 5C-F2              3348   	rb	0f25ch.7
                                 3349   
                                 3350   ;;	PB0D = 0;		// B.0 Output OFF....
                                 3351   CLINEA 0000H 0001H 04EBH 0002H 0021H
00:00A0 82-A0 58-F2              3352   	rb	0f258h.0
                                 3353   
                                 3354   ;;	PB1D = 0;		// B.1 Output OFF....
                                 3355   CLINEA 0000H 0001H 04ECH 0002H 0021H
00:00A4 92-A0 58-F2              3356   	rb	0f258h.1
                                 3357   
                                 3358   ;;	PB2D = 0;		// B.2 Output OFF....
                                 3359   CLINEA 0000H 0001H 04EDH 0002H 0021H
00:00A8 A2-A0 58-F2              3360   	rb	0f258h.2
                                 3361   
                                 3362   ;;	PB3D = 0;		// B.3 Output OFF....
                                 3363   CLINEA 0000H 0001H 04EEH 0002H 0021H
00:00AC B2-A0 58-F2              3364   	rb	0f258h.3
                                 3365   
                                 3366   ;;	PB4D = 0;		// B.4 Output OFF....
                                 3367   CLINEA 0000H 0001H 04EFH 0002H 0021H
00:00B0 C2-A0 58-F2              3368   	rb	0f258h.4
                                 3369   
                                 3370   ;;	PB5D = 0;		// B.5 Output OFF....
                                 3371   CLINEA 0000H 0001H 04F0H 0002H 0021H
00:00B4 D2-A0 58-F2              3372   	rb	0f258h.5
                                 3373   
                                 3374   ;;	PB6D = 0;		// B.6 Output OFF....
                                 3375   CLINEA 0000H 0001H 04F1H 0002H 0021H
00:00B8 E2-A0 58-F2              3376   	rb	0f258h.6
                                 3377   
                                 3378   ;;	PB7D = 0;		// B.7 Output OFF....
                                 3379   CLINEA 0000H 0001H 04F2H 0002H 0021H
00:00BC F2-A0 58-F2              3380   	rb	0f258h.7
                                 3381   
                                 3382   ;;	main_clrWDT(); 	// Clear WDT
                                 3383   CLINEA 0000H 0001H 04F4H 0002H 001DH
00:00C0 00-F0'00-00'             3384   	b	_main_clrWDT
                                 3385   CBLOCKEND 181 2 1270
                                 3386   CLINEA 0000H 0001H 04F6H 0001H 0001H
                                 3387   CBLOCKEND 181 1 1270
                                 3388   CFUNCTIONEND 181
                                 3389   
                                 3390   
  --------------------------     3391   	rseg $$PortC_Low$main
                                 3392   CFUNCTION 182
                                 3393   
00:0000                          3394   _PortC_Low	:
                                 3395   CBLOCK 182 1 1276
                                 3396   
                                 3397   ;;void PortC_Low(void){
                                 3398   CLINEA 0000H 0001H 04FCH 0001H 0015H
                                 3399   CBLOCK 182 2 1276
                                 3400   
                                 3401   ;;	PC0DIR = 0;		// PortC Bit0 set to Output Mode...
                                 3402   CLINEA 0000H 0001H 0506H 0002H 0031H
00:0000 82-A0 61-F2              3403   	rb	0f261h.0
                                 3404   
                                 3405   ;;	PC1DIR = 0;		// PortC Bit1 set to Output Mode...
                                 3406   CLINEA 0000H 0001H 0507H 0002H 0031H
00:0004 92-A0 61-F2              3407   	rb	0f261h.1
                                 3408   
                                 3409   ;;	PC2DIR = 0;		// PortC Bit2 set to Output Mode...
                                 3410   CLINEA 0000H 0001H 0508H 0002H 0031H
00:0008 A2-A0 61-F2              3411   	rb	0f261h.2
                                 3412   
                                 3413   ;;	PC3DIR = 0;		// PortC Bit3 set to Output Mode...
                                 3414   CLINEA 0000H 0001H 0509H 0002H 0031H
00:000C B2-A0 61-F2              3415   	rb	0f261h.3
                                 3416   
                                 3417   ;;	PC0C1  = 1;		// PortC Bit0 set to CMOS Output...
                                 3418   CLINEA 0000H 0001H 050DH 0002H 0031H
00:0010 80-A0 63-F2              3419   	sb	0f263h.0
                                 3420   
                                 3421   ;;	PC0C0  = 1;		
                                 3422   CLINEA 0000H 0001H 050EH 0002H 000EH
00:0014 80-A0 62-F2              3423   	sb	0f262h.0
                                 3424   
                                 3425   ;;	PC1C1  = 1;		// PortC Bit1 set to CMOS Output...
                                 3426   CLINEA 0000H 0001H 050FH 0002H 0031H
00:0018 90-A0 63-F2              3427   	sb	0f263h.1
                                 3428   
                                 3429   ;;	PC1C0  = 1;	
                                 3430   CLINEA 0000H 0001H 0510H 0002H 000DH
00:001C 90-A0 62-F2              3431   	sb	0f262h.1
                                 3432   
                                 3433   ;;	PC2C1  = 1;		// PortC Bit2 set to CMOS Output...
                                 3434   CLINEA 0000H 0001H 0511H 0002H 0031H
00:0020 A0-A0 63-F2              3435   	sb	0f263h.2
                                 3436   
                                 3437   ;;	PC2C0  = 1;	
                                 3438   CLINEA 0000H 0001H 0512H 0002H 000DH
00:0024 A0-A0 62-F2              3439   	sb	0f262h.2
                                 3440   
                                 3441   ;;	PC3C1  = 1;		// PortC Bit3 set to CMOS Output...
                                 3442   CLINEA 0000H 0001H 0513H 0002H 0031H
00:0028 B0-A0 63-F2              3443   	sb	0f263h.3
                                 3444   
                                 3445   ;;	PC3C0  = 1;		
                                 3446   CLINEA 0000H 0001H 0514H 0002H 000EH
00:002C B0-A0 62-F2              3447   	sb	0f262h.3
                                 3448   
                                 3449   ;;	PC0MD1  = 0;	// PortC Bit0 set to General Purpose Output...
                                 3450   CLINEA 0000H 0001H 0517H 0002H 003CH
00:0030 82-A0 65-F2              3451   	rb	0f265h.0
                                 3452   
                                 3453   ;;	PC0MD0  = 0;	
                                 3454   CLINEA 0000H 0001H 0518H 0002H 000EH
00:0034 82-A0 64-F2              3455   	rb	0f264h.0
                                 3456   
                                 3457   ;;	PC1MD1  = 0;	// PortC Bit1 set to General Purpose Output...
                                 3458   CLINEA 0000H 0001H 0519H 0002H 003CH
00:0038 92-A0 65-F2              3459   	rb	0f265h.1
                                 3460   
                                 3461   ;;	PC1MD0  = 0;	
                                 3462   CLINEA 0000H 0001H 051AH 0002H 000EH
00:003C 92-A0 64-F2              3463   	rb	0f264h.1
                                 3464   
                                 3465   ;;	PC2MD1  = 0;	// PortC Bit2 set to General Purpose Output...
                                 3466   CLINEA 0000H 0001H 051BH 0002H 003CH
00:0040 A2-A0 65-F2              3467   	rb	0f265h.2
                                 3468   
                                 3469   ;;	PC2MD0  = 0;	
                                 3470   CLINEA 0000H 0001H 051CH 0002H 000EH
00:0044 A2-A0 64-F2              3471   	rb	0f264h.2
                                 3472   
                                 3473   ;;	PC3MD1  = 0;	// PortC Bit3 set to General Purpose Output...
                                 3474   CLINEA 0000H 0001H 051DH 0002H 003CH
00:0048 B2-A0 65-F2              3475   	rb	0f265h.3
                                 3476   
                                 3477   ;;	PC3MD0  = 0;	
                                 3478   CLINEA 0000H 0001H 051EH 0002H 000EH
00:004C B2-A0 64-F2              3479   	rb	0f264h.3
                                 3480   
                                 3481   ;;	PC0D = 0;		// C.0 Output OFF....
                                 3482   CLINEA 0000H 0001H 0521H 0002H 0021H
00:0050 82-A0 60-F2              3483   	rb	0f260h.0
                                 3484   
                                 3485   ;;	PC1D = 0;		// C.1 Output OFF....
                                 3486   CLINEA 0000H 0001H 0522H 0002H 0021H
00:0054 92-A0 60-F2              3487   	rb	0f260h.1
                                 3488   
                                 3489   ;;	PC2D = 0;		// C.2 Output OFF....
                                 3490   CLINEA 0000H 0001H 0523H 0002H 0021H
00:0058 A2-A0 60-F2              3491   	rb	0f260h.2
                                 3492   
                                 3493   ;;	PC3D = 0;		// C.3 Output OFF....
                                 3494   CLINEA 0000H 0001H 0524H 0002H 0021H
00:005C B2-A0 60-F2              3495   	rb	0f260h.3
                                 3496   
                                 3497   ;;	main_clrWDT(); 	// Clear WDT
                                 3498   CLINEA 0000H 0001H 0526H 0002H 001DH
00:0060 00-F0'00-00'             3499   	b	_main_clrWDT
                                 3500   CBLOCKEND 182 2 1320
                                 3501   CLINEA 0000H 0001H 0528H 0001H 0001H
                                 3502   CBLOCKEND 182 1 1320
                                 3503   CFUNCTIONEND 182
                                 3504   
                                 3505   
  --------------------------     3506   	rseg $$PortA_Digital_Inputs$main
                                 3507   CFUNCTION 227
                                 3508   
00:0000                          3509   _PortA_Digital_Inputs	:
                                 3510   CBLOCK 227 1 1326
                                 3511   
                                 3512   ;;void PortA_Digital_Inputs(void){
                                 3513   CLINEA 0000H 0001H 052EH 0001H 0020H
                                 3514   CBLOCK 227 2 1326
                                 3515   
                                 3516   ;;	PA0DIR = 1;		// PortA Bit0 set to Input Mode...
                                 3517   CLINEA 0000H 0001H 0538H 0002H 0030H
00:0000 80-A0 51-F2              3518   	sb	0f251h.0
                                 3519   
                                 3520   ;;	PA1DIR = 1;		// PortA Bit1 set to Input Mode...
                                 3521   CLINEA 0000H 0001H 0539H 0002H 0030H
00:0004 90-A0 51-F2              3522   	sb	0f251h.1
                                 3523   
                                 3524   ;;	PA2DIR = 1;		// PortA Bit2 set to Input Mode...
                                 3525   CLINEA 0000H 0001H 053AH 0002H 0030H
00:0008 A0-A0 51-F2              3526   	sb	0f251h.2
                                 3527   
                                 3528   ;;	PA0C1  = 1;		// PortA Bit0 set to Input with Pull-Up Resistor...
                                 3529   CLINEA 0000H 0001H 053EH 0002H 0041H
00:000C 80-A0 53-F2              3530   	sb	0f253h.0
                                 3531   
                                 3532   ;;	PA0C0  = 0;		
                                 3533   CLINEA 0000H 0001H 053FH 0002H 000EH
00:0010 82-A0 52-F2              3534   	rb	0f252h.0
                                 3535   
                                 3536   ;;	PA1C1  = 1;		// PortA Bit1 set to Input with Pull-Up Resistor...
                                 3537   CLINEA 0000H 0001H 0540H 0002H 0041H
00:0014 90-A0 53-F2              3538   	sb	0f253h.1
                                 3539   
                                 3540   ;;	PA1C0  = 0;	
                                 3541   CLINEA 0000H 0001H 0541H 0002H 000DH
00:0018 92-A0 52-F2              3542   	rb	0f252h.1
                                 3543   
                                 3544   ;;	PA2C1  = 1;		// PortA Bit2 set to Input with Pull-Up Resistor...
                                 3545   CLINEA 0000H 0001H 0542H 0002H 0041H
00:001C A0-A0 53-F2              3546   	sb	0f253h.2
                                 3547   
                                 3548   ;;	PA2C0  = 0;	
                                 3549   CLINEA 0000H 0001H 0543H 0002H 000DH
00:0020 A2-A0 52-F2              3550   	rb	0f252h.2
                                 3551   
                                 3552   ;;	PA0MD1  = 0;	// PortA Bit0 set to General Purpose I/O...
                                 3553   CLINEA 0000H 0001H 0546H 0002H 0039H
00:0024 82-A0 55-F2              3554   	rb	0f255h.0
                                 3555   
                                 3556   ;;	PA0MD0  = 0;	
                                 3557   CLINEA 0000H 0001H 0547H 0002H 000EH
00:0028 82-A0 54-F2              3558   	rb	0f254h.0
                                 3559   
                                 3560   ;;	PA1MD1  = 0;	// PortA Bit1 set to General Purpose I/O...
                                 3561   CLINEA 0000H 0001H 0548H 0002H 0039H
00:002C 92-A0 55-F2              3562   	rb	0f255h.1
                                 3563   
                                 3564   ;;	PA1MD0  = 0;	
                                 3565   CLINEA 0000H 0001H 0549H 0002H 000EH
00:0030 92-A0 54-F2              3566   	rb	0f254h.1
                                 3567   
                                 3568   ;;	PA2MD1  = 0;	// PortA Bit2 set to General Purpose I/O...
                                 3569   CLINEA 0000H 0001H 054AH 0002H 0039H
00:0034 A2-A0 55-F2              3570   	rb	0f255h.2
                                 3571   
                                 3572   ;;	PA2MD0  = 0;	
                                 3573   CLINEA 0000H 0001H 054BH 0002H 000EH
00:0038 A2-A0 54-F2              3574   	rb	0f254h.2
                                 3575   
                                 3576   ;;	main_clrWDT(); 	// Clear WDT
                                 3577   CLINEA 0000H 0001H 054DH 0002H 001DH
00:003C 00-F0'00-00'             3578   	b	_main_clrWDT
                                 3579   CBLOCKEND 227 2 1359
                                 3580   CLINEA 0000H 0001H 054FH 0001H 0001H
                                 3581   CBLOCKEND 227 1 1359
                                 3582   CFUNCTIONEND 227
                                 3583   
                                 3584   
  --------------------------     3585   	rseg $$PinB0_PWM$main
                                 3586   CFUNCTION 228
                                 3587   
00:0000                          3588   _PinB0_PWM	:
                                 3589   CBLOCK 228 1 1367
                                 3590   
                                 3591   ;;void PinB0_PWM(void){
                                 3592   CLINEA 0000H 0001H 0557H 0001H 0015H
                                 3593   CBLOCK 228 2 1367
                                 3594   
                                 3595   ;;	PB0DIR = 0;		// PortB Bit0 set to Output Mode...
                                 3596   CLINEA 0000H 0001H 0563H 0002H 0031H
00:0000 82-A0 59-F2              3597   	rb	0f259h.0
                                 3598   
                                 3599   ;;	PB0C1  = 1;		// PortB Bit0 set to CMOS Output...
                                 3600   CLINEA 0000H 0001H 0566H 0002H 0031H
00:0004 80-A0 5B-F2              3601   	sb	0f25bh.0
                                 3602   
                                 3603   ;;	PB0C0  = 1;		
                                 3604   CLINEA 0000H 0001H 0567H 0002H 000EH
00:0008 80-A0 5A-F2              3605   	sb	0f25ah.0
                                 3606   
                                 3607   ;;	PB0MD1  = 0;	// PortB Bit0 set to PWM Output (0,1)...
                                 3608   CLINEA 0000H 0001H 056AH 0002H 0036H
00:000C 82-A0 5D-F2              3609   	rb	0f25dh.0
                                 3610   
                                 3611   ;;	PB0MD0  = 1;	
                                 3612   CLINEA 0000H 0001H 056BH 0002H 000EH
00:0010 80-A0 5C-F2              3613   	sb	0f25ch.0
                                 3614   
                                 3615   ;;	PCCS1 = 0;	//00= LS; 01=HS; 10=PLL
                                 3616   CLINEA 0000H 0001H 056FH 0002H 0023H
00:0014 92-A0 16-F9              3617   	rb	0f916h.1
                                 3618   
                                 3619   ;;	PCCS0 = 1;
                                 3620   CLINEA 0000H 0001H 0570H 0002H 000BH
00:0018 80-A0 16-F9              3621   	sb	0f916h.0
                                 3622   
                                 3623   ;;	PWCP = 4250;		// Init Period to (1=255kHz; 10=46kHz; 50=10kHz; 200=2.5kH; ; 3185 = 160Hz; 3400=150Hz; 4250=120Hz; 5000=102Hz)
                                 3624   CLINEA 0000H 0001H 0573H 0002H 007EH
00:001C 9A 00                    3625   	mov	r0,	#09ah
00:001E 10 01                    3626   	mov	r1,	#010h
00:0020 13-90 10-F9              3627   	st	er0,	0f910h
                                 3628   
                                 3629   ;;	PWCD =    12;		//12    ~  0.25% duty cycle @ 160Hz
                                 3630   CLINEA 0000H 0001H 057DH 0002H 0033H
00:0024 0C E0                    3631   	mov	er0,	#12
00:0026 13-90 12-F9              3632   	st	er0,	0f912h
                                 3633   
                                 3634   ;;	PCRUN = 0;		// OFF to start
                                 3635   CLINEA 0000H 0001H 057FH 0002H 001CH
00:002A 82-A0 17-F9              3636   	rb	0f917h.0
                                 3637   CBLOCKEND 228 2 1409
                                 3638   
                                 3639   ;;}
                                 3640   CLINEA 0000H 0001H 0581H 0001H 0001H
00:002E 1F-FE                    3641   	rt
                                 3642   CBLOCKEND 228 1 1409
                                 3643   CFUNCTIONEND 228
                                 3644   
                                 3645   	public _KMX61_WUFC
                                 3646   	public _KMX61_INC3_CFGDAT
                                 3647   	public _KMX61_TEMP_EN_CNTL_CFGDAT
                                 3648   	public _NOPms
                                 3649   	public _KMX61_INC1_CFGDAT
                                 3650   	public _KMX61_CNTL1_CFGDAT
                                 3651   	public _KMX61_CNTL2_CFGDAT
                                 3652   	public _KMX61_WUFC_CFGDAT
                                 3653   	public _Manufact_ID
                                 3654   	public _checkI2C
                                 3655   	public _DoorOpen
                                 3656   	public _main_clrWDT
                                 3657   	public _ALS0_LSB
                                 3658   	public _ALS0_MSB
                                 3659   	public _KMX61_BTSC
                                 3660   	public _KMX61_ODCNTL
                                 3661   	public _KMX61_COTR
                                 3662   	public _main_reqNotHalt
                                 3663   	public _KMX61_STATUS_REG
                                 3664   	public _KMX61_WUFTH
                                 3665   	public _KMX61_STBY_REG
                                 3666   	public _KMX61_INC1
                                 3667   	public _KMX61_INC2
                                 3668   	public _KMX61_INC3
                                 3669   	public _KMX61_ACCEL_YOUT_H
                                 3670   	public _KMX61_ACCEL_YOUT_L
                                 3671   	public _GetUART_Command
                                 3672   	public _KMX61_INS1
                                 3673   	public _KMX61_INS2
                                 3674   	public _KMX61_MAG_YOUT_H
                                 3675   	public _KMX61_MAG_YOUT_L
                                 3676   	public _KMX61_WUFTH_CFGDAT
                                 3677   	public _PortA_Digital_Inputs
                                 3678   	public _BLINK
                                 3679   	public _KMX61_BUF_THRESH_H
                                 3680   	public _KMX61_BUF_THRESH_L
                                 3681   	public _KMX61_BUF_CLEAR
                                 3682   	public _SWEEP_RGB
                                 3683   	public _main
                                 3684   	public _I2C_Write
                                 3685   	public _KMX61_ODCNTL_CFGDAT
                                 3686   	public _OutputPWM
                                 3687   	public _NOP1000
                                 3688   	public _Prox_ModeCTR
                                 3689   	public _KMX61_BTH
                                 3690   	public _KMX61_TEMP_EN_CNTL
                                 3691   	public _KMX61_CNTL1
                                 3692   	public _write
                                 3693   	public _KMX61_CNTL2
                                 3694   	public _KMX61_XOUT_HPF_L
                                 3695   	public _KMX61_XOUT_HPF_H
                                 3696   	public _ALS1_LSB
                                 3697   	public _ALS1_MSB
                                 3698   	public _TimeFlag
                                 3699   	public _KMX61_INL
                                 3700   	public _KMX61_ZOUT_HPF_L
                                 3701   	public _KMX61_ZOUT_HPF_H
                                 3702   	public _PortC_Low
                                 3703   	public _KMX61_YOUT_HPF_L
                                 3704   	public _KMX61_YOUT_HPF_H
                                 3705   	public _KMX61_SN_1
                                 3706   	public _KMX61_SN_2
                                 3707   	public _KMX61_SN_3
                                 3708   	public _KMX61_SN_4
                                 3709   	public _KMX61_SELF_TEST_CFGDAT
                                 3710   	public _Prox_PS_LSB
                                 3711   	public _Prox_PS_MSB
                                 3712   	public _PortB_Low
                                 3713   	public _KMX61_I2C_ADDR
                                 3714   	public _KMX61_BUF_READ
                                 3715   	public _KMX61_TEMP_OUT_H
                                 3716   	public _KMX61_TEMP_OUT_L
                                 3717   	public _KMX61_ACCEL_XOUT_H
                                 3718   	public _KMX61_ACCEL_ZOUT_H
                                 3719   	public _KMX61_ACCEL_XOUT_L
                                 3720   	public _KMX61_ACCEL_ZOUT_L
                                 3721   	public _KMX61_BUF_CTRL2_CFGDAT
                                 3722   	public _I2C_Read
                                 3723   	public _KMX61_BUF_CTRL1_CFGDAT
                                 3724   	public _KMX61_BUF_CTRL1
                                 3725   	public _KMX61_BUF_CTRL2
                                 3726   	public _KMX61_BUF_STATUS_L
                                 3727   	public _PortA_Low
                                 3728   	public _KMX61_BUF_STATUS_H
                                 3729   	public _analog_comparator
                                 3730   	public _KMX61_MAG_XOUT_H
                                 3731   	public _KMX61_MAG_ZOUT_H
                                 3732   	public _KMX61_MAG_XOUT_L
                                 3733   	public _KMX61_MAG_ZOUT_L
                                 3734   	public _KMX61_SELF_TEST
                                 3735   	public _KMX61_WHO_AM_I
                                 3736   	public _Init_KMX61
                                 3737   	public _PinB0_PWM
                                 3738   	public _KMX61_BUF_STATUS_REG
                                 3739   	public _BLINK_SLOW
                                 3740   	__flgUartFin comm data 01h #00h
                                 3741   	_SensorReturn comm data 04h #00h
                                 3742   	_uniRawSensorOut comm data 06h #00h
                                 3743   	__flgPB2Int comm data 01h #00h
                                 3744   	__flgI2CFin comm data 01h #00h
                                 3745   	_RegVal comm data 01h #00h
                                 3746   	__reqNotHalt comm data 01h #00h
                                 3747   	_timer comm data 02h #00h
                                 3748   	extrn code near : _irq_init
                                 3749   	extrn code near : _uart_PortSet
                                 3750   	extrn code near : _i2c_stop
                                 3751   	extrn code near : _i2c_startReceive
                                 3752   	extrn code near : _uart_startReceive
                                 3753   	extrn code near : _uart_init
                                 3754   	extrn code near : _i2c_continue
                                 3755   	extrn code near : _irq_di
                                 3756   	extrn code near : _irq_ei
                                 3757   	extrn code near : _irq_setHdr
                                 3758   	extrn code near : _uart_stop
                                 3759   	extrn code near : _uart_startSend
                                 3760   	extrn code near : _i2c_startSend
                                 3761   	extrn code near : _uart_continue
                                 3762   	extrn code near : _i2c_init
                                 3763   	extrn code near : _tm_init
                                 3764   	extrn code : $$start_up
                                 3765   
  --------------------------     3766   	cseg #00h at 02h
00:0002 00-00'                   3767   	dw	$$start_up
                                 3768   
  --------------------------     3769   	rseg $$NINITTAB
??:0000 00                       3770   	db	00h
??:0001 00                       3771   	align
??:0002 02-00                    3772   	dw	02h
??:0004 01                       3773   	db	01h
??:0005 00                       3774   	db	00h
??:0006 00                       3775   	db	00h
??:0007 20                       3776   	db	020h
??:0008 20                       3777   	db	020h
??:0009 20                       3778   	db	020h
??:000A 20                       3779   	db	020h
??:000B 20                       3780   	db	020h
??:000C 20                       3781   	db	020h
??:000D 20                       3782   	db	020h
??:000E 20                       3783   	db	020h
                                 3784   
  --------------------------     3785   	rseg $$TAB_uartSetParam$main
00:0000                          3786   __uartSetParam :
00:0000 00-4B                    3787   	dw	04b00h
00:0002 00-00                    3788   	dw	00h
00:0004 00                       3789   	db	00h
00:0005 02                       3790   	db	02h
00:0006 00                       3791   	db	00h
00:0007 00                       3792   	db	00h
00:0008 00                       3793   	db	00h
00:0009 00                       3794   	align
                                 3795   
  --------------------------     3796   	rseg $$TABManufact_ID$main
00:0000                          3797   _Manufact_ID :
00:0000 92                       3798   	db	092h
                                 3799   
  --------------------------     3800   	rseg $$TABProx_ModeCTR$main
00:0000                          3801   _Prox_ModeCTR :
00:0000 41                       3802   	db	041h
                                 3803   
  --------------------------     3804   	rseg $$TABProx_PS_LSB$main
00:0000                          3805   _Prox_PS_LSB :
00:0000 44                       3806   	db	044h
                                 3807   
  --------------------------     3808   	rseg $$TABProx_PS_MSB$main
00:0000                          3809   _Prox_PS_MSB :
00:0000 45                       3810   	db	045h
                                 3811   
  --------------------------     3812   	rseg $$TABALS0_LSB$main
00:0000                          3813   _ALS0_LSB :
00:0000 46                       3814   	db	046h
                                 3815   
  --------------------------     3816   	rseg $$TABALS0_MSB$main
00:0000                          3817   _ALS0_MSB :
00:0000 47                       3818   	db	047h
                                 3819   
  --------------------------     3820   	rseg $$TABALS1_LSB$main
00:0000                          3821   _ALS1_LSB :
00:0000 48                       3822   	db	048h
                                 3823   
  --------------------------     3824   	rseg $$TABALS1_MSB$main
00:0000                          3825   _ALS1_MSB :
00:0000 49                       3826   	db	049h
                                 3827   
  --------------------------     3828   	rseg $$TABKMX61_I2C_ADDR$main
00:0000                          3829   _KMX61_I2C_ADDR :
00:0000 0E                       3830   	db	0eh
                                 3831   
  --------------------------     3832   	rseg $$TABKMX61_WHO_AM_I$main
00:0000                          3833   _KMX61_WHO_AM_I :
00:0000 00                       3834   	db	00h
                                 3835   
  --------------------------     3836   	rseg $$TABKMX61_INS1$main
00:0000                          3837   _KMX61_INS1 :
00:0000 01                       3838   	db	01h
                                 3839   
  --------------------------     3840   	rseg $$TABKMX61_INS2$main
00:0000                          3841   _KMX61_INS2 :
00:0000 02                       3842   	db	02h
                                 3843   
  --------------------------     3844   	rseg $$TABKMX61_STATUS_REG$main
00:0000                          3845   _KMX61_STATUS_REG :
00:0000 03                       3846   	db	03h
                                 3847   
  --------------------------     3848   	rseg $$TABKMX61_ACCEL_XOUT_L$main
00:0000                          3849   _KMX61_ACCEL_XOUT_L :
00:0000 0A                       3850   	db	0ah
                                 3851   
  --------------------------     3852   	rseg $$TABKMX61_ACCEL_XOUT_H$main
00:0000                          3853   _KMX61_ACCEL_XOUT_H :
00:0000 0B                       3854   	db	0bh
                                 3855   
  --------------------------     3856   	rseg $$TABKMX61_ACCEL_YOUT_L$main
00:0000                          3857   _KMX61_ACCEL_YOUT_L :
00:0000 0C                       3858   	db	0ch
                                 3859   
  --------------------------     3860   	rseg $$TABKMX61_ACCEL_YOUT_H$main
00:0000                          3861   _KMX61_ACCEL_YOUT_H :
00:0000 0D                       3862   	db	0dh
                                 3863   
  --------------------------     3864   	rseg $$TABKMX61_ACCEL_ZOUT_L$main
00:0000                          3865   _KMX61_ACCEL_ZOUT_L :
00:0000 0E                       3866   	db	0eh
                                 3867   
  --------------------------     3868   	rseg $$TABKMX61_ACCEL_ZOUT_H$main
00:0000                          3869   _KMX61_ACCEL_ZOUT_H :
00:0000 0F                       3870   	db	0fh
                                 3871   
  --------------------------     3872   	rseg $$TABKMX61_TEMP_OUT_L$main
00:0000                          3873   _KMX61_TEMP_OUT_L :
00:0000 10                       3874   	db	010h
                                 3875   
  --------------------------     3876   	rseg $$TABKMX61_TEMP_OUT_H$main
00:0000                          3877   _KMX61_TEMP_OUT_H :
00:0000 11                       3878   	db	011h
                                 3879   
  --------------------------     3880   	rseg $$TABKMX61_MAG_XOUT_L$main
00:0000                          3881   _KMX61_MAG_XOUT_L :
00:0000 12                       3882   	db	012h
                                 3883   
  --------------------------     3884   	rseg $$TABKMX61_MAG_XOUT_H$main
00:0000                          3885   _KMX61_MAG_XOUT_H :
00:0000 13                       3886   	db	013h
                                 3887   
  --------------------------     3888   	rseg $$TABKMX61_MAG_YOUT_L$main
00:0000                          3889   _KMX61_MAG_YOUT_L :
00:0000 14                       3890   	db	014h
                                 3891   
  --------------------------     3892   	rseg $$TABKMX61_MAG_YOUT_H$main
00:0000                          3893   _KMX61_MAG_YOUT_H :
00:0000 15                       3894   	db	015h
                                 3895   
  --------------------------     3896   	rseg $$TABKMX61_MAG_ZOUT_L$main
00:0000                          3897   _KMX61_MAG_ZOUT_L :
00:0000 16                       3898   	db	016h
                                 3899   
  --------------------------     3900   	rseg $$TABKMX61_MAG_ZOUT_H$main
00:0000                          3901   _KMX61_MAG_ZOUT_H :
00:0000 17                       3902   	db	017h
                                 3903   
  --------------------------     3904   	rseg $$TABKMX61_XOUT_HPF_L$main
00:0000                          3905   _KMX61_XOUT_HPF_L :
00:0000 18                       3906   	db	018h
                                 3907   
  --------------------------     3908   	rseg $$TABKMX61_XOUT_HPF_H$main
00:0000                          3909   _KMX61_XOUT_HPF_H :
00:0000 19                       3910   	db	019h
                                 3911   
  --------------------------     3912   	rseg $$TABKMX61_YOUT_HPF_L$main
00:0000                          3913   _KMX61_YOUT_HPF_L :
00:0000 1A                       3914   	db	01ah
                                 3915   
  --------------------------     3916   	rseg $$TABKMX61_YOUT_HPF_H$main
00:0000                          3917   _KMX61_YOUT_HPF_H :
00:0000 1B                       3918   	db	01bh
                                 3919   
  --------------------------     3920   	rseg $$TABKMX61_ZOUT_HPF_L$main
00:0000                          3921   _KMX61_ZOUT_HPF_L :
00:0000 1C                       3922   	db	01ch
                                 3923   
  --------------------------     3924   	rseg $$TABKMX61_ZOUT_HPF_H$main
00:0000                          3925   _KMX61_ZOUT_HPF_H :
00:0000 1D                       3926   	db	01dh
                                 3927   
  --------------------------     3928   	rseg $$TABKMX61_SN_1$main
00:0000                          3929   _KMX61_SN_1 :
00:0000 24                       3930   	db	024h
                                 3931   
  --------------------------     3932   	rseg $$TABKMX61_SN_2$main
00:0000                          3933   _KMX61_SN_2 :
00:0000 25                       3934   	db	025h
                                 3935   
  --------------------------     3936   	rseg $$TABKMX61_SN_3$main
00:0000                          3937   _KMX61_SN_3 :
00:0000 26                       3938   	db	026h
                                 3939   
  --------------------------     3940   	rseg $$TABKMX61_SN_4$main
00:0000                          3941   _KMX61_SN_4 :
00:0000 27                       3942   	db	027h
                                 3943   
  --------------------------     3944   	rseg $$TABKMX61_INL$main
00:0000                          3945   _KMX61_INL :
00:0000 28                       3946   	db	028h
                                 3947   
  --------------------------     3948   	rseg $$TABKMX61_STBY_REG$main
00:0000                          3949   _KMX61_STBY_REG :
00:0000 29                       3950   	db	029h
                                 3951   
  --------------------------     3952   	rseg $$TABKMX61_CNTL1$main
00:0000                          3953   _KMX61_CNTL1 :
00:0000 2A                       3954   	db	02ah
                                 3955   
  --------------------------     3956   	rseg $$TABKMX61_CNTL2$main
00:0000                          3957   _KMX61_CNTL2 :
00:0000 2B                       3958   	db	02bh
                                 3959   
  --------------------------     3960   	rseg $$TABKMX61_ODCNTL$main
00:0000                          3961   _KMX61_ODCNTL :
00:0000 2C                       3962   	db	02ch
                                 3963   
  --------------------------     3964   	rseg $$TABKMX61_INC1$main
00:0000                          3965   _KMX61_INC1 :
00:0000 2D                       3966   	db	02dh
                                 3967   
  --------------------------     3968   	rseg $$TABKMX61_INC2$main
00:0000                          3969   _KMX61_INC2 :
00:0000 2E                       3970   	db	02eh
                                 3971   
  --------------------------     3972   	rseg $$TABKMX61_INC3$main
00:0000                          3973   _KMX61_INC3 :
00:0000 2F                       3974   	db	02fh
                                 3975   
  --------------------------     3976   	rseg $$TABKMX61_COTR$main
00:0000                          3977   _KMX61_COTR :
00:0000 3C                       3978   	db	03ch
                                 3979   
  --------------------------     3980   	rseg $$TABKMX61_WUFTH$main
00:0000                          3981   _KMX61_WUFTH :
00:0000 3D                       3982   	db	03dh
                                 3983   
  --------------------------     3984   	rseg $$TABKMX61_WUFC$main
00:0000                          3985   _KMX61_WUFC :
00:0000 3E                       3986   	db	03eh
                                 3987   
  --------------------------     3988   	rseg $$TABKMX61_BTH$main
00:0000                          3989   _KMX61_BTH :
00:0000 3F                       3990   	db	03fh
                                 3991   
  --------------------------     3992   	rseg $$TABKMX61_BTSC$main
00:0000                          3993   _KMX61_BTSC :
00:0000 40                       3994   	db	040h
                                 3995   
  --------------------------     3996   	rseg $$TABKMX61_TEMP_EN_CNTL$main
00:0000                          3997   _KMX61_TEMP_EN_CNTL :
00:0000 4C                       3998   	db	04ch
                                 3999   
  --------------------------     4000   	rseg $$TABKMX61_SELF_TEST$main
00:0000                          4001   _KMX61_SELF_TEST :
00:0000 60                       4002   	db	060h
                                 4003   
  --------------------------     4004   	rseg $$TABKMX61_BUF_THRESH_H$main
00:0000                          4005   _KMX61_BUF_THRESH_H :
00:0000 76                       4006   	db	076h
                                 4007   
  --------------------------     4008   	rseg $$TABKMX61_BUF_THRESH_L$main
00:0000                          4009   _KMX61_BUF_THRESH_L :
00:0000 77                       4010   	db	077h
                                 4011   
  --------------------------     4012   	rseg $$TABKMX61_BUF_CTRL1$main
00:0000                          4013   _KMX61_BUF_CTRL1 :
00:0000 78                       4014   	db	078h
                                 4015   
  --------------------------     4016   	rseg $$TABKMX61_BUF_CTRL2$main
00:0000                          4017   _KMX61_BUF_CTRL2 :
00:0000 79                       4018   	db	079h
                                 4019   
  --------------------------     4020   	rseg $$TABKMX61_BUF_CLEAR$main
00:0000                          4021   _KMX61_BUF_CLEAR :
00:0000 7A                       4022   	db	07ah
                                 4023   
  --------------------------     4024   	rseg $$TABKMX61_BUF_STATUS_REG$main
00:0000                          4025   _KMX61_BUF_STATUS_REG :
00:0000 7B                       4026   	db	07bh
                                 4027   
  --------------------------     4028   	rseg $$TABKMX61_BUF_STATUS_H$main
00:0000                          4029   _KMX61_BUF_STATUS_H :
00:0000 7C                       4030   	db	07ch
                                 4031   
  --------------------------     4032   	rseg $$TABKMX61_BUF_STATUS_L$main
00:0000                          4033   _KMX61_BUF_STATUS_L :
00:0000 7D                       4034   	db	07dh
                                 4035   
  --------------------------     4036   	rseg $$TABKMX61_BUF_READ$main
00:0000                          4037   _KMX61_BUF_READ :
00:0000 7E                       4038   	db	07eh
                                 4039   
  --------------------------     4040   	rseg $$TABKMX61_SELF_TEST_CFGDAT$main
00:0000                          4041   _KMX61_SELF_TEST_CFGDAT :
00:0000 00                       4042   	db	00h
                                 4043   
  --------------------------     4044   	rseg $$TABKMX61_CNTL1_CFGDAT$main
00:0000                          4045   _KMX61_CNTL1_CFGDAT :
00:0000 53                       4046   	db	053h
                                 4047   
  --------------------------     4048   	rseg $$TABKMX61_CNTL2_CFGDAT$main
00:0000                          4049   _KMX61_CNTL2_CFGDAT :
00:0000 00                       4050   	db	00h
                                 4051   
  --------------------------     4052   	rseg $$TABKMX61_ODCNTL_CFGDAT$main
00:0000                          4053   _KMX61_ODCNTL_CFGDAT :
00:0000 00                       4054   	db	00h
                                 4055   
  --------------------------     4056   	rseg $$TABKMX61_TEMP_EN_CNTL_CFGDAT$main
00:0000                          4057   _KMX61_TEMP_EN_CNTL_CFGDAT :
00:0000 01                       4058   	db	01h
                                 4059   
  --------------------------     4060   	rseg $$TABKMX61_BUF_CTRL1_CFGDAT$main
00:0000                          4061   _KMX61_BUF_CTRL1_CFGDAT :
00:0000 00                       4062   	db	00h
                                 4063   
  --------------------------     4064   	rseg $$TABKMX61_BUF_CTRL2_CFGDAT$main
00:0000                          4065   _KMX61_BUF_CTRL2_CFGDAT :
00:0000 00                       4066   	db	00h
                                 4067   
  --------------------------     4068   	rseg $$TABKMX61_INC1_CFGDAT$main
00:0000                          4069   _KMX61_INC1_CFGDAT :
00:0000 29                       4070   	db	029h
                                 4071   
  --------------------------     4072   	rseg $$TABKMX61_INC3_CFGDAT$main
00:0000                          4073   _KMX61_INC3_CFGDAT :
00:0000 02                       4074   	db	02h
                                 4075   
  --------------------------     4076   	rseg $$TABKMX61_WUFTH_CFGDAT$main
00:0000                          4077   _KMX61_WUFTH_CFGDAT :
00:0000 08                       4078   	db	08h
                                 4079   
  --------------------------     4080   	rseg $$TABKMX61_WUFC_CFGDAT$main
00:0000                          4081   _KMX61_WUFC_CFGDAT :
00:0000 01                       4082   	db	01h
                                 4083   
  --------------------------     4084   	rseg $$TAB$$S135$main
00:0000                          4085   $$S135 :
00:0000 42 75 6C 62 20 46 75 6C  4086   	DB	"Bulb Fully On\x0a"
00:0008 6C 79 20 4F 6E 0A 00      >>>   , 00H
                                 4087   
  --------------------------     4088   	rseg $$TAB$$S139$main
00:0000                          4089   $$S139 :
00:0000 42 75 6C 62 20 69 73 20  4090   	DB	"Bulb is Off\x0a"
00:0008 4F 66 66 0A 00            >>>   , 00H
                                 4091   
  --------------------------     4092   	rseg $$NINITVAR
00:0000                          4093   _DoorOpen :
00:0000                          4094   	ds	01h
00:0001                          4095   	align
00:0002                          4096   _TimeFlag :
00:0002                          4097   	ds	02h
00:0004                          4098   _SensorIntializationFlag :
00:0004                          4099   	ds	01h
00:0005                          4100   _LEDFlashFlag :
00:0005                          4101   	ds	01h
00:0006                          4102   _LEDChangeFlag :
00:0006                          4103   	ds	01h
00:0007                          4104   _str :
00:0007                          4105   	ds	08h
                                 4106   
  --------------------------     4107   	rseg $$NVARmain
00:0000                          4108   _KnotsUnit :
00:0000                          4109   	ds	01h
00:0001                          4110   	align
00:0002                          4111   _i :
00:0002                          4112   	ds	02h
00:0004                          4113   _j :
00:0004                          4114   	ds	02h
00:0006                          4115   _KnotsSpeed :
00:0006                          4116   	ds	08h
00:000E                          4117   _Latitude :
00:000E                          4118   	ds	08h
00:0016                          4119   _HomeTolerance :
00:0016                          4120   	ds	08h
00:001E                          4121   _Eleveation :
00:001E                          4122   	ds	02h
00:0020                          4123   _hexToDecOffset :
00:0020                          4124   	ds	02h
00:0022                          4125   _ReceiverState :
00:0022                          4126   	ds	01h
00:0023                          4127   _LonDir :
00:0023                          4128   	ds	01h
00:0024                          4129   _CheckPointIndex :
00:0024                          4130   	ds	02h
00:0026                          4131   _Geoid :
00:0026                          4132   	ds	08h
00:002E                          4133   _Date :
00:002E                          4134   	ds	04h
00:0032                          4135   _val :
00:0032                          4136   	ds	0320h
00:0352                          4137   _txChar :
00:0352                          4138   	ds	03h
00:0355                          4139   	align
00:0356                          4140   _LatDest :
00:0356                          4141   	ds	028h
00:037E                          4142   _Course :
00:037E                          4143   	ds	08h
00:0386                          4144   _GSV_Info :
00:0386                          4145   	ds	018h
00:039E                          4146   _PDOP :
00:039E                          4147   	ds	08h
00:03A6                          4148   _isTrueNorth :
00:03A6                          4149   	ds	01h
00:03A7                          4150   _isBulbOn :
00:03A7                          4151   	ds	01h
00:03A8                          4152   _flag :
00:03A8                          4153   	ds	02h
00:03AA                          4154   _bulbIntensity :
00:03AA                          4155   	ds	02h
00:03AC                          4156   _fixQuality :
00:03AC                          4157   	ds	02h
00:03AE                          4158   _checkSum :
00:03AE                          4159   	ds	02h
00:03B0                          4160   _VDOP :
00:03B0                          4161   	ds	08h
00:03B8                          4162   _LonDest :
00:03B8                          4163   	ds	028h
00:03E0                          4164   _prevBulbIntensity :
00:03E0                          4165   	ds	08h
00:03E8                          4166   _GroundSpeed :
00:03E8                          4167   	ds	08h
00:03F0                          4168   _bulbEnable :
00:03F0                          4169   	ds	02h
00:03F2                          4170   _SensorPlatformSelection :
00:03F2                          4171   	ds	01h
00:03F3                          4172   _LatLonValid :
00:03F3                          4173   	ds	01h
00:03F4                          4174   _Mode :
00:03F4                          4175   	ds	02h
00:03F6                          4176   _sigDigits :
00:03F6                          4177   	ds	02h
00:03F8                          4178   _LatDir :
00:03F8                          4179   	ds	01h
00:03F9                          4180   	align
00:03FA                          4181   _isSettingMode :
00:03FA                          4182   	ds	02h
00:03FC                          4183   _isNeg :
00:03FC                          4184   	ds	02h
00:03FE                          4185   _MagDegrees :
00:03FE                          4186   	ds	08h
00:0406                          4187   _MagDir :
00:0406                          4188   	ds	01h
00:0407                          4189   	align
00:0408                          4190   _wordIndex :
00:0408                          4191   	ds	02h
00:040A                          4192   _temp :
00:040A                          4193   	ds	01h
00:040B                          4194   _speedUnit :
00:040B                          4195   	ds	01h
00:040C                          4196   _Azimuth :
00:040C                          4197   	ds	02h
00:040E                          4198   _TrueDegrees :
00:040E                          4199   	ds	08h
00:0416                          4200   _Longitude :
00:0416                          4201   	ds	08h
00:041E                          4202   _MSL :
00:041E                          4203   	ds	08h
00:0426                          4204   _MagneticVariation :
00:0426                          4205   	ds	08h
00:042E                          4206   _SNR :
00:042E                          4207   	ds	02h
00:0430                          4208   _buffer :
00:0430                          4209   	ds	014h
00:0444                          4210   _KMHSpeed :
00:0444                          4211   	ds	01h
00:0445                          4212   	align
00:0446                          4213   _GSV_index :
00:0446                          4214   	ds	02h
00:0448                          4215   _word :
00:0448                          4216   	ds	064h
00:04AC                          4217   _UTC :
00:04AC                          4218   	ds	06h
00:04B2                          4219   _PRN_num :
00:04B2                          4220   	ds	02h
00:04B4                          4221   _numSat :
00:04B4                          4222   	ds	02h
00:04B6                          4223   _GSV_numMessage :
00:04B6                          4224   	ds	02h
00:04B8                          4225   _HDOP :
00:04B8                          4226   	ds	08h
00:04C0                          4227   _SV_ID :
00:04C0                          4228   	ds	018h
00:04D8                          4229   _isMagNorth :
00:04D8                          4230   	ds	01h
                                 4231   
  --------------------------     4232   	rseg $$NINITTAB
??:000F 00                       4233   	align
                                 4234   
  --------------------------     4235   	rseg $$NINITVAR
00:000F                          4236   	align
                                 4237   	extrn code : __dcmpu8sw
                                 4238   	extrn code : __dmulu8sw
                                 4239   
                                 4240   	end



  Target       : ML610111 (nX-U8/100)
  Memory Model : SMALL
  Data   Model : NEAR
  ROM WINDOW   : (not specified)
  Internal RAM : E000H to E7FFH

  Errors   : 0
  Warnings : 0  (/Wrpeast)
  Lines    : 4240
